
CH32V003F4P6_tank_sensor.elf:     file format elf32-littleriscv
CH32V003F4P6_tank_sensor.elf
architecture: riscv:rv32, flags 0x00000112:
EXEC_P, HAS_SYMS, D_PAGED
start address 0x00000000

Program Header:
    LOAD off    0x00001000 vaddr 0x00000000 paddr 0x00000000 align 2**12
         filesz 0x000000a0 memsz 0x000000a0 flags r-x
    LOAD off    0x00002000 vaddr 0x20000000 paddr 0x000000a0 align 2**12
         filesz 0x0000000c memsz 0x0000000c flags r-x
    LOAD off    0x000020ac vaddr 0x000000ac paddr 0x000000ac align 2**12
         filesz 0x0000369c memsz 0x0000369c flags r-x
    LOAD off    0x0000600c vaddr 0x2000000c paddr 0x00003748 align 2**12
         filesz 0x0000002c memsz 0x0000003c flags rw-
    LOAD off    0x00006700 vaddr 0x20000700 paddr 0x20000700 align 2**12
         filesz 0x00000000 memsz 0x00000100 flags rw-

Sections:
Idx Name          Size      VMA       LMA       File off  Algn
  0 .init         000000a0  00000000  00000000  00001000  2**2
                  CONTENTS, ALLOC, LOAD, READONLY, CODE
  1 .highcodelalign 00000000  000000a0  000000a0  00006038  2**0
                  CONTENTS
  2 .highcode     0000000c  20000000  000000a0  00002000  2**1
                  CONTENTS, ALLOC, LOAD, READONLY, CODE
  3 .text         0000369c  000000ac  000000ac  000020ac  2**2
                  CONTENTS, ALLOC, LOAD, READONLY, CODE
  4 .fini         00000000  00003748  00003748  00006038  2**0
                  CONTENTS, ALLOC, LOAD, CODE
  5 .dalign       00000000  2000000c  2000000c  00006038  2**0
                  CONTENTS
  6 .dlalign      00000000  00003748  00003748  00006038  2**0
                  CONTENTS
  7 .data         0000002c  2000000c  00003748  0000600c  2**2
                  CONTENTS, ALLOC, LOAD, DATA
  8 .bss          00000010  20000038  00003774  00006038  2**2
                  ALLOC
  9 .stack        00000100  20000700  20000700  00006700  2**0
                  ALLOC
 10 .debug_info   0000c0fd  00000000  00000000  00006038  2**0
                  CONTENTS, READONLY, DEBUGGING
 11 .debug_abbrev 0000237e  00000000  00000000  00012135  2**0
                  CONTENTS, READONLY, DEBUGGING
 12 .debug_loc    0000560b  00000000  00000000  000144b3  2**0
                  CONTENTS, READONLY, DEBUGGING
 13 .debug_aranges 00000bc0  00000000  00000000  00019ac0  2**3
                  CONTENTS, READONLY, DEBUGGING
 14 .debug_ranges 00000d18  00000000  00000000  0001a680  2**3
                  CONTENTS, READONLY, DEBUGGING
 15 .debug_line   0000e0ef  00000000  00000000  0001b398  2**0
                  CONTENTS, READONLY, DEBUGGING
 16 .debug_str    000034b7  00000000  00000000  00029487  2**0
                  CONTENTS, READONLY, DEBUGGING
 17 .comment      00000033  00000000  00000000  0002c93e  2**0
                  CONTENTS, READONLY
 18 .debug_frame  00001c28  00000000  00000000  0002c974  2**2
                  CONTENTS, READONLY, DEBUGGING
SYMBOL TABLE:
00000000 l    d  .init	00000000 .init
000000a0 l    d  .highcodelalign	00000000 .highcodelalign
20000000 l    d  .highcode	00000000 .highcode
000000ac l    d  .text	00000000 .text
00003748 l    d  .fini	00000000 .fini
2000000c l    d  .dalign	00000000 .dalign
00003748 l    d  .dlalign	00000000 .dlalign
2000000c l    d  .data	00000000 .data
20000038 l    d  .bss	00000000 .bss
20000700 l    d  .stack	00000000 .stack
00000000 l    d  .debug_info	00000000 .debug_info
00000000 l    d  .debug_abbrev	00000000 .debug_abbrev
00000000 l    d  .debug_loc	00000000 .debug_loc
00000000 l    d  .debug_aranges	00000000 .debug_aranges
00000000 l    d  .debug_ranges	00000000 .debug_ranges
00000000 l    d  .debug_line	00000000 .debug_line
00000000 l    d  .debug_str	00000000 .debug_str
00000000 l    d  .comment	00000000 .comment
00000000 l    d  .debug_frame	00000000 .debug_frame
00000000 l    df *ABS*	00000000 core_riscv.c
00000000 l    df *ABS*	00000000 main.c
00000000 l    df *ABS*	00000000 nrf24_simple.c
00000d9a l     F .text	00000038 spi_xfer
00000dd2 l     F .text	0000002a nrf_write_reg
00000dfc l     F .text	00000040 nrf_write_buf
00000000 l    df *ABS*	00000000 system_ch32v00x.c
00000000 l    df *ABS*	00000000 ch32v00x_adc.c
00000000 l    df *ABS*	00000000 ch32v00x_exti.c
00000000 l    df *ABS*	00000000 ch32v00x_flash.c
00000000 l    df *ABS*	00000000 ch32v00x_gpio.c
00000000 l    df *ABS*	00000000 ch32v00x_misc.c
00000000 l    df *ABS*	00000000 ch32v00x_pwr.c
00000000 l    df *ABS*	00000000 ch32v00x_rcc.c
20000010 l     O .data	00000014 ADCPrescTable
20000024 l     O .data	00000010 APBAHBPrescTable
00000000 l    df *ABS*	00000000 ch32v00x_spi.c
00000000 l    df *ABS*	00000000 ch32v00x_tim.c
00000000 l    df *ABS*	00000000 ch32v00x_usart.c
00000000 l    df *ABS*	00000000 debug.c
20000044 l     O .bss	00000002 p_ms
20000046 l     O .bss	00000001 p_us
00000000 l    df *ABS*	00000000 wchprintf.c
00000000 l    df *ABS*	00000000 addsf3.c
00000000 l    df *ABS*	00000000 divsf3.c
00000000 l    df *ABS*	00000000 gesf2.c
00000000 l    df *ABS*	00000000 lesf2.c
00000000 l    df *ABS*	00000000 mulsf3.c
00000000 l    df *ABS*	00000000 subsf3.c
00000000 l    df *ABS*	00000000 fixsfsi.c
00000000 l    df *ABS*	00000000 fixunssfsi.c
00000000 l    df *ABS*	00000000 floatunsisf.c
00000000 l    df *ABS*	00000000 libgcc2.c
00000000 l    df *ABS*	00000000 libgcc2.c
00001c66  w    F .text	00000004 printDouble
0000139e g     F .text	0000001a FLASH_Unlock
00001c6a  w    F .text	00000360 print
00001fca  w    F .text	00000024 printf
20000838 g       .data	00000000 __global_pointer$
000010ec  w      .text	00000000 TIM1_CC_IRQHandler
0000176c g     F .text	00000004 SPI_I2S_SendData
000010ec  w      .text	00000000 HardFault_Handler
00001436 g     F .text	00000054 FLASH_ProgramWord
00001b4e  w    F .text	00000114 printInt
000023c4 g     F .text	0000030e .hidden __divsf3
000010ec  w      .text	00000000 SysTick_Handler
00001234 g     F .text	0000000a ADC_StartCalibration
0000153a g     F .text	00000062 NVIC_Init
000010ec  w      .text	00000000 PVD_IRQHandler
00001770 g     F .text	00000004 SPI_I2S_ReceiveData
000010ec  w      .text	00000000 NMI_Handler
00002dfa g     F .text	00000060 .hidden __fixsfsi
000015be g     F .text	0000001e PWR_AWU_SetWindowValue
2000003c g     O .bss	00000004 g_settings
00001904 g     F .text	0000000a USART_GetFlagStatus
20000038 g       .bss	00000000 _sbss
00000100 g       *ABS*	00000000 __stack_size
00001320 g     F .text	0000000a ADC_GetFlagStatus
0000197c g     F .text	00000058 USART_Printf_Init
00002a74 g     F .text	00000386 .hidden __subsf3
000013fe g     F .text	00000038 FLASH_ErasePage
000000b6 g     F .text	0000000a .hidden __riscv_restore_2
000008b8 g     F .text	000000e4 run_pairing
00001212 g     F .text	00000010 ADC_Cmd
00001c62  w    F .text	00000004 printLongLongInt
000017cc g     F .text	00000018 TIM_Cmd
00001fee g     F .text	0000004a puts
00002fec g     O .text	00000003 PAIRING_ADDR
2000000c g     O .data	00000004 SystemCoreClock
000000e0 g     F .text	0000002c .hidden __udivsi3
000000a0 g       .init	00000000 _einit
00000fa4 g     F .text	00000014 nrf24_power_up_tx
0000180e g     F .text	0000000c TIM_ClearITPendingBit
00002758 g     F .text	0000008c .hidden __lesf2
000016a6 g     F .text	0000001e RCC_APB2PeriphClockCmd
0000148a g     F .text	0000007c GPIO_Init
000015dc g     F .text	00000014 RCC_ADCCLKConfig
20000040 g     O .bss	00000004 NVIC_Priority_Group
000010ec  w      .text	00000000 SPI1_IRQHandler
00001222 g     F .text	0000000a ADC_ResetCalibration
000018e6 g     F .text	00000016 USART_Cmd
000000ac g     F .text	0000000a .hidden __riscv_save_1
000000b6 g     F .text	0000000a .hidden __riscv_restore_0
0000024c g     F .text	00000004 AWU_IRQHandler
000002ca g     F .text	0000000c EXTI7_0_IRQHandler
000016c4 g     F .text	0000001e RCC_APB1PeriphClockCmd
00000250 g     F .text	0000007a exti_init
20000700 g       .stack	00000000 _heap_end
00001774 g     F .text	0000000a SPI_I2S_GetFlagStatus
000010ec  w      .text	00000000 DMA1_Channel4_IRQHandler
0000125e g     F .text	000000ba ADC_RegularChannelConfig
000010ec  w      .text	00000000 ADC1_IRQHandler
00001318 g     F .text	00000008 ADC_GetConversionValue
000002fe g     F .text	0000003c flash_save_settings
000013b8 g     F .text	0000000e FLASH_Lock
00001394 g     F .text	0000000a EXTI_ClearITPendingBit
0000123e g     F .text	00000008 ADC_GetCalibrationStatus
20000048 g       .bss	00000000 _ebss
000010ec  w      .text	00000000 DMA1_Channel7_IRQHandler
00001246 g     F .text	00000018 ADC_SoftwareStartConvCmd
0000122c g     F .text	00000008 ADC_GetResetCalibrationStatus
00000764 g     F .text	000000ec read_battery_level
0000190e g     F .text	00000034 Delay_Init
00000e3c g     F .text	0000013c nrf24_init
00001700 g     F .text	00000020 RCC_GetFlagStatus
00000362 g     F .text	0000006e timer_init
000026d2 g     F .text	00000086 .hidden __gtsf2
00001510 g     F .text	00000004 GPIO_SetBits
0000010c g     F .text	00000008 .hidden __umodsi3
000010ec  w      .text	00000000 I2C1_EV_IRQHandler
000017f6 g     F .text	00000018 TIM_GetITStatus
00001604 g     F .text	000000a2 RCC_GetClocksFreq
000010ec  w      .text	00000000 DMA1_Channel6_IRQHandler
00002f7e g     F .text	0000006e .hidden __clzsi2
0000181a g     F .text	000000cc USART_Init
20000038 g     O .bss	00000004 g_millis
000010ec  w      .text	00000000 RCC_IRQHandler
000010ec  w      .text	00000000 TIM1_TRG_COM_IRQHandler
000010ec  w      .text	00000000 DMA1_Channel1_IRQHandler
00000000 g       .init	00000000 _start
000013de g     F .text	00000020 FLASH_WaitForLastOperation
00001a68  w    F .text	000000e6 prints
000017e4 g     F .text	00000012 TIM_ITConfig
20000000 g       .highcode	00000000 _highcode_vma_start
0000132a g     F .text	0000006a EXTI_Init
000000c0 g     F .text	00000014 .hidden __mulsi3
0000043e g     F .text	000000ba read_internal_probes
00000fb8 g     F .text	00000090 nrf24_send
20000000 g     F .highcode	0000000a WFE
00001514 g     F .text	00000004 GPIO_ResetBits
2000000c g       .dalign	00000000 _data_vma
000004f8 g     F .text	0000003a read_tank_level
00001518 g     F .text	00000022 GPIO_EXTILineConfig
00000850 g     F .text	00000024 generate_new_tank_id
00000156 g     F .text	000000a8 memset
000015b0 g     F .text	0000000e PWR_AWU_SetPrescaler
0000099c g     F .text	000003fe main
00002758 g     F .text	0000008c .hidden __ltsf2
000005d2 g     F .text	00000158 enter_deep_sleep
0000072a g     F .text	0000003a get_adc_val
000010ec  w      .text	00000000 DMA1_Channel5_IRQHandler
000000d8 g     F .text	00000058 .hidden __divsi3
00001942 g     F .text	0000003a Delay_Ms
000027e4 g     F .text	00000290 .hidden __mulsf3
00001752 g     F .text	0000001a SPI_Cmd
000000a0 g       .highcodelalign	00000000 _highcode_lma
0000106e g     F .text	00000042 SystemInit
00001a20  w    F .text	00000048 printchar
00003648 g     O .text	00000100 .hidden __clz_tab
00000000 g       .init	00000000 _sinit
000026d2 g     F .text	00000086 .hidden __gesf2
000010ec  w      .text	00000000 DMA1_Channel3_IRQHandler
000010ec  w      .text	00000000 TIM1_UP_IRQHandler
00000532 g     F .text	000000a0 adc_init
00000874 g     F .text	00000044 calculate_checksum
000010ec  w      .text	00000000 WWDG_IRQHandler
00000f78 g     F .text	0000002c nrf24_set_tx_addr
0000033a g     F .text	00000028 TIM2_IRQHandler
20000800 g       .stack	00000000 _eusrstack
000000ac g     F .text	0000000a .hidden __riscv_save_2
000010ec  w      .text	00000000 SW_Handler
0000119e g     F .text	00000026 ADC_DeInit
000010ec  w      .text	00000000 TIM1_BRK_IRQHandler
000011c4 g     F .text	0000004e ADC_Init
000018fc g     F .text	00000008 USART_SendData
000019d4 g     F .text	0000004c _write
20000038 g       .data	00000000 _edata
20000048 g       .bss	00000000 _end
2000000c g       .highcode	00000000 _highcode_vma_end
0000177e g     F .text	0000004e TIM_TimeBaseInit
00003748 g       .dlalign	00000000 _data_lma
000010b0 g     F .text	0000003c SystemCoreClockUpdate
00002eb0 g     F .text	000000ce .hidden __floatunsisf
00000130 g     F .text	00000024 .hidden __modsi3
000010ec  w      .text	00000000 DMA1_Channel2_IRQHandler
000010ee  w      .text	00000000 handle_reset
00002e5a g     F .text	00000056 .hidden __fixunssfsi
000010ec  w      .text	00000000 FLASH_IRQHandler
000000ac g     F .text	0000000a .hidden __riscv_save_0
00001048 g     F .text	00000026 nrf24_power_down
000010ec  w      .text	00000000 USART1_IRQHandler
000015f0 g     F .text	00000014 RCC_LSICmd
000016e2 g     F .text	0000001e RCC_APB2PeriphResetCmd
000010ec  w      .text	00000000 I2C1_ER_IRQHandler
00001720 g     F .text	00000032 SPI_Init
000003d0 g     F .text	0000006e gpio_init
000001fe g     F .text	0000004e pwr_sleep_init
000000b6 g     F .text	0000000a .hidden __riscv_restore_1
000002d6 g     F .text	00000028 flash_read_settings
0000159c g     F .text	00000014 PWR_AutoWakeUpCmd
00001506 g     F .text	0000000a GPIO_ReadInputDataBit
000013c6 g     F .text	00000018 FLASH_GetBank1Status
00002038 g     F .text	0000038c .hidden __addsf3



Disassembly of section .init:

00000000 <_sinit>:
   0:	0ee0106f          	j	10ee <handle_reset>
   4:	0000                	unimp
   6:	0000                	unimp
   8:	10ec                	addi	a1,sp,108
   a:	0000                	unimp
   c:	10ec                	addi	a1,sp,108
	...
  2e:	0000                	unimp
  30:	10ec                	addi	a1,sp,108
  32:	0000                	unimp
  34:	0000                	unimp
  36:	0000                	unimp
  38:	10ec                	addi	a1,sp,108
  3a:	0000                	unimp
  3c:	0000                	unimp
  3e:	0000                	unimp
  40:	10ec                	addi	a1,sp,108
  42:	0000                	unimp
  44:	10ec                	addi	a1,sp,108
  46:	0000                	unimp
  48:	10ec                	addi	a1,sp,108
  4a:	0000                	unimp
  4c:	10ec                	addi	a1,sp,108
  4e:	0000                	unimp
  50:	02ca                	slli	t0,t0,0x12
  52:	0000                	unimp
  54:	024c                	addi	a1,sp,260
  56:	0000                	unimp
  58:	10ec                	addi	a1,sp,108
  5a:	0000                	unimp
  5c:	10ec                	addi	a1,sp,108
  5e:	0000                	unimp
  60:	10ec                	addi	a1,sp,108
  62:	0000                	unimp
  64:	10ec                	addi	a1,sp,108
  66:	0000                	unimp
  68:	10ec                	addi	a1,sp,108
  6a:	0000                	unimp
  6c:	10ec                	addi	a1,sp,108
  6e:	0000                	unimp
  70:	10ec                	addi	a1,sp,108
  72:	0000                	unimp
  74:	10ec                	addi	a1,sp,108
  76:	0000                	unimp
  78:	10ec                	addi	a1,sp,108
  7a:	0000                	unimp
  7c:	10ec                	addi	a1,sp,108
  7e:	0000                	unimp
  80:	10ec                	addi	a1,sp,108
  82:	0000                	unimp
  84:	10ec                	addi	a1,sp,108
  86:	0000                	unimp
  88:	10ec                	addi	a1,sp,108
  8a:	0000                	unimp
  8c:	10ec                	addi	a1,sp,108
  8e:	0000                	unimp
  90:	10ec                	addi	a1,sp,108
  92:	0000                	unimp
  94:	10ec                	addi	a1,sp,108
  96:	0000                	unimp
  98:	033a                	slli	t1,t1,0xe
  9a:	0000                	unimp
  9c:	0000                	unimp
	...

Disassembly of section .highcode:

20000000 <WFE>:
20000000:	10500073          	wfi
20000004:	157d                	addi	a0,a0,-1
20000006:	fd7d                	bnez	a0,20000004 <WFE+0x4>
20000008:	8082                	ret
	...

Disassembly of section .text:

000000ac <__riscv_save_0>:
      ac:	1151                	addi	sp,sp,-12
      ae:	c026                	sw	s1,0(sp)
      b0:	c222                	sw	s0,4(sp)
      b2:	c406                	sw	ra,8(sp)
      b4:	8282                	jr	t0

000000b6 <__riscv_restore_0>:
      b6:	4482                	lw	s1,0(sp)
      b8:	4412                	lw	s0,4(sp)
      ba:	40a2                	lw	ra,8(sp)
      bc:	0131                	addi	sp,sp,12
      be:	8082                	ret

000000c0 <__mulsi3>:
      c0:	862a                	mv	a2,a0
      c2:	4501                	li	a0,0
      c4:	0015f693          	andi	a3,a1,1
      c8:	c291                	beqz	a3,cc <__mulsi3+0xc>
      ca:	9532                	add	a0,a0,a2
      cc:	8185                	srli	a1,a1,0x1
      ce:	0606                	slli	a2,a2,0x1
      d0:	f9f5                	bnez	a1,c4 <__mulsi3+0x4>
      d2:	8082                	ret
      d4:	0000                	unimp
	...

000000d8 <__divsi3>:
      d8:	02054e63          	bltz	a0,114 <__umodsi3+0x8>
      dc:	0405c363          	bltz	a1,122 <__umodsi3+0x16>

000000e0 <__udivsi3>:
      e0:	862e                	mv	a2,a1
      e2:	85aa                	mv	a1,a0
      e4:	557d                	li	a0,-1
      e6:	c215                	beqz	a2,10a <__stack_size+0xa>
      e8:	4685                	li	a3,1
      ea:	00b67863          	bgeu	a2,a1,fa <__udivsi3+0x1a>
      ee:	00c05663          	blez	a2,fa <__udivsi3+0x1a>
      f2:	0606                	slli	a2,a2,0x1
      f4:	0686                	slli	a3,a3,0x1
      f6:	feb66ce3          	bltu	a2,a1,ee <__udivsi3+0xe>
      fa:	4501                	li	a0,0
      fc:	00c5e463          	bltu	a1,a2,104 <__stack_size+0x4>
     100:	8d91                	sub	a1,a1,a2
     102:	8d55                	or	a0,a0,a3
     104:	8285                	srli	a3,a3,0x1
     106:	8205                	srli	a2,a2,0x1
     108:	faf5                	bnez	a3,fc <__udivsi3+0x1c>
     10a:	8082                	ret

0000010c <__umodsi3>:
     10c:	8286                	mv	t0,ra
     10e:	3fc9                	jal	e0 <__udivsi3>
     110:	852e                	mv	a0,a1
     112:	8282                	jr	t0
     114:	40a00533          	neg	a0,a0
     118:	0005d763          	bgez	a1,126 <__umodsi3+0x1a>
     11c:	40b005b3          	neg	a1,a1
     120:	b7c1                	j	e0 <__udivsi3>
     122:	40b005b3          	neg	a1,a1
     126:	8286                	mv	t0,ra
     128:	3f65                	jal	e0 <__udivsi3>
     12a:	40a00533          	neg	a0,a0
     12e:	8282                	jr	t0

00000130 <__modsi3>:
     130:	8286                	mv	t0,ra
     132:	0005c763          	bltz	a1,140 <__modsi3+0x10>
     136:	00054963          	bltz	a0,148 <__modsi3+0x18>
     13a:	375d                	jal	e0 <__udivsi3>
     13c:	852e                	mv	a0,a1
     13e:	8282                	jr	t0
     140:	40b005b3          	neg	a1,a1
     144:	fe055be3          	bgez	a0,13a <__modsi3+0xa>
     148:	40a00533          	neg	a0,a0
     14c:	3f51                	jal	e0 <__udivsi3>
     14e:	40b00533          	neg	a0,a1
     152:	8282                	jr	t0
	...

00000156 <memset>:
     156:	433d                	li	t1,15
     158:	872a                	mv	a4,a0
     15a:	02c37363          	bgeu	t1,a2,180 <memset+0x2a>
     15e:	00f77793          	andi	a5,a4,15
     162:	efbd                	bnez	a5,1e0 <memset+0x8a>
     164:	e5ad                	bnez	a1,1ce <memset+0x78>
     166:	ff067693          	andi	a3,a2,-16
     16a:	8a3d                	andi	a2,a2,15
     16c:	96ba                	add	a3,a3,a4
     16e:	c30c                	sw	a1,0(a4)
     170:	c34c                	sw	a1,4(a4)
     172:	c70c                	sw	a1,8(a4)
     174:	c74c                	sw	a1,12(a4)
     176:	0741                	addi	a4,a4,16
     178:	fed76be3          	bltu	a4,a3,16e <memset+0x18>
     17c:	e211                	bnez	a2,180 <memset+0x2a>
     17e:	8082                	ret
     180:	40c306b3          	sub	a3,t1,a2
     184:	068a                	slli	a3,a3,0x2
     186:	00000297          	auipc	t0,0x0
     18a:	9696                	add	a3,a3,t0
     18c:	00a68067          	jr	10(a3)
     190:	00b70723          	sb	a1,14(a4)
     194:	00b706a3          	sb	a1,13(a4)
     198:	00b70623          	sb	a1,12(a4)
     19c:	00b705a3          	sb	a1,11(a4)
     1a0:	00b70523          	sb	a1,10(a4)
     1a4:	00b704a3          	sb	a1,9(a4)
     1a8:	00b70423          	sb	a1,8(a4)
     1ac:	00b703a3          	sb	a1,7(a4)
     1b0:	00b70323          	sb	a1,6(a4)
     1b4:	00b702a3          	sb	a1,5(a4)
     1b8:	00b70223          	sb	a1,4(a4)
     1bc:	00b701a3          	sb	a1,3(a4)
     1c0:	00b70123          	sb	a1,2(a4)
     1c4:	00b700a3          	sb	a1,1(a4)
     1c8:	00b70023          	sb	a1,0(a4)
     1cc:	8082                	ret
     1ce:	0ff5f593          	andi	a1,a1,255
     1d2:	00859693          	slli	a3,a1,0x8
     1d6:	8dd5                	or	a1,a1,a3
     1d8:	01059693          	slli	a3,a1,0x10
     1dc:	8dd5                	or	a1,a1,a3
     1de:	b761                	j	166 <memset+0x10>
     1e0:	00279693          	slli	a3,a5,0x2
     1e4:	00000297          	auipc	t0,0x0
     1e8:	9696                	add	a3,a3,t0
     1ea:	8286                	mv	t0,ra
     1ec:	fa8680e7          	jalr	-88(a3)
     1f0:	8096                	mv	ra,t0
     1f2:	17c1                	addi	a5,a5,-16
     1f4:	8f1d                	sub	a4,a4,a5
     1f6:	963e                	add	a2,a2,a5
     1f8:	f8c374e3          	bgeu	t1,a2,180 <memset+0x2a>
     1fc:	b7a5                	j	164 <memset+0xe>

000001fe <pwr_sleep_init>:
     1fe:	eafff2ef          	jal	t0,ac <__riscv_save_0>
     202:	10000537          	lui	a0,0x10000
     206:	1161                	addi	sp,sp,-8
     208:	4585                	li	a1,1
     20a:	4ba010ef          	jal	ra,16c4 <RCC_APB1PeriphClockCmd>
     20e:	4505                	li	a0,1
     210:	3e0010ef          	jal	ra,15f0 <RCC_LSICmd>
     214:	06100513          	li	a0,97
     218:	4e8010ef          	jal	ra,1700 <RCC_GetFlagStatus>
     21c:	dd65                	beqz	a0,214 <pwr_sleep_init+0x16>
     21e:	453d                	li	a0,15
     220:	390010ef          	jal	ra,15b0 <PWR_AWU_SetPrescaler>
     224:	4521                	li	a0,8
     226:	398010ef          	jal	ra,15be <PWR_AWU_SetWindowValue>
     22a:	4505                	li	a0,1
     22c:	370010ef          	jal	ra,159c <PWR_AutoWakeUpCmd>
     230:	11500793          	li	a5,277
     234:	00011123          	sh	zero,2(sp)
     238:	807c                	sh	a5,0(sp)
     23a:	4785                	li	a5,1
     23c:	815c                	sb	a5,2(sp)
     23e:	850a                	mv	a0,sp
     240:	4785                	li	a5,1
     242:	c23e                	sw	a5,4(sp)
     244:	2f6010ef          	jal	ra,153a <NVIC_Init>
     248:	0121                	addi	sp,sp,8
     24a:	b5b5                	j	b6 <__riscv_restore_0>

0000024c <AWU_IRQHandler>:
     24c:	30200073          	mret

00000250 <exti_init>:
     250:	e5dff2ef          	jal	t0,ac <__riscv_save_0>
     254:	1121                	addi	sp,sp,-24
     256:	4585                	li	a1,1
     258:	4505                	li	a0,1
     25a:	44c010ef          	jal	ra,16a6 <RCC_APB2PeriphClockCmd>
     25e:	4581                	li	a1,0
     260:	4509                	li	a0,2
     262:	c402                	sw	zero,8(sp)
     264:	c602                	sw	zero,12(sp)
     266:	c802                	sw	zero,16(sp)
     268:	ca02                	sw	zero,20(sp)
     26a:	2ae010ef          	jal	ra,1518 <GPIO_EXTILineConfig>
     26e:	4585                	li	a1,1
     270:	4509                	li	a0,2
     272:	2a6010ef          	jal	ra,1518 <GPIO_EXTILineConfig>
     276:	4589                	li	a1,2
     278:	4509                	li	a0,2
     27a:	29e010ef          	jal	ra,1518 <GPIO_EXTILineConfig>
     27e:	4591                	li	a1,4
     280:	4509                	li	a0,2
     282:	296010ef          	jal	ra,1518 <GPIO_EXTILineConfig>
     286:	47dd                	li	a5,23
     288:	4405                	li	s0,1
     28a:	c43e                	sw	a5,8(sp)
     28c:	0028                	addi	a0,sp,8
     28e:	47c1                	li	a5,16
     290:	c83e                	sw	a5,16(sp)
     292:	ca22                	sw	s0,20(sp)
     294:	c602                	sw	zero,12(sp)
     296:	094010ef          	jal	ra,132a <EXTI_Init>
     29a:	4599                	li	a1,6
     29c:	450d                	li	a0,3
     29e:	27a010ef          	jal	ra,1518 <GPIO_EXTILineConfig>
     2a2:	04000793          	li	a5,64
     2a6:	c43e                	sw	a5,8(sp)
     2a8:	0028                	addi	a0,sp,8
     2aa:	47b1                	li	a5,12
     2ac:	c83e                	sw	a5,16(sp)
     2ae:	07c010ef          	jal	ra,132a <EXTI_Init>
     2b2:	11400793          	li	a5,276
     2b6:	00011123          	sh	zero,2(sp)
     2ba:	850a                	mv	a0,sp
     2bc:	807c                	sh	a5,0(sp)
     2be:	8140                	sb	s0,2(sp)
     2c0:	c222                	sw	s0,4(sp)
     2c2:	278010ef          	jal	ra,153a <NVIC_Init>
     2c6:	0161                	addi	sp,sp,24
     2c8:	b3fd                	j	b6 <__riscv_restore_0>

000002ca <EXTI7_0_IRQHandler>:
     2ca:	05700513          	li	a0,87
     2ce:	0c6010ef          	jal	ra,1394 <EXTI_ClearITPendingBit>
     2d2:	30200073          	mret

000002d6 <flash_read_settings>:
     2d6:	080047b7          	lui	a5,0x8004
     2da:	fc07a703          	lw	a4,-64(a5) # 8003fc0 <_data_lma+0x8000878>
     2de:	200007b7          	lui	a5,0x20000
     2e2:	03c78793          	addi	a5,a5,60 # 2000003c <g_settings>
     2e6:	c398                	sw	a4,0(a5)
     2e8:	66c1                	lui	a3,0x10
     2ea:	0742                	slli	a4,a4,0x10
     2ec:	8341                	srli	a4,a4,0x10
     2ee:	16fd                	addi	a3,a3,-1
     2f0:	00d71663          	bne	a4,a3,2fc <flash_read_settings+0x26>
     2f4:	00079023          	sh	zero,0(a5)
     2f8:	00078123          	sb	zero,2(a5)
     2fc:	8082                	ret

000002fe <flash_save_settings>:
     2fe:	dafff2ef          	jal	t0,ac <__riscv_save_0>
     302:	09c010ef          	jal	ra,139e <FLASH_Unlock>
     306:	080044b7          	lui	s1,0x8004
     30a:	fc048513          	addi	a0,s1,-64 # 8003fc0 <_data_lma+0x8000878>
     30e:	20000437          	lui	s0,0x20000
     312:	0ec010ef          	jal	ra,13fe <FLASH_ErasePage>
     316:	03c40413          	addi	s0,s0,60 # 2000003c <g_settings>
     31a:	400c                	lw	a1,0(s0)
     31c:	fc048513          	addi	a0,s1,-64
     320:	116010ef          	jal	ra,1436 <FLASH_ProgramWord>
     324:	094010ef          	jal	ra,13b8 <FLASH_Lock>
     328:	2030                	lbu	a2,2(s0)
     32a:	200e                	lhu	a1,0(s0)
     32c:	00003537          	lui	a0,0x3
     330:	02050513          	addi	a0,a0,32 # 3020 <PAIRING_ADDR+0x34>
     334:	497010ef          	jal	ra,1fca <printf>
     338:	bbbd                	j	b6 <__riscv_restore_0>

0000033a <TIM2_IRQHandler>:
     33a:	4585                	li	a1,1
     33c:	40000537          	lui	a0,0x40000
     340:	4b6010ef          	jal	ra,17f6 <TIM_GetITStatus>
     344:	cd09                	beqz	a0,35e <TIM2_IRQHandler+0x24>
     346:	200007b7          	lui	a5,0x20000
     34a:	03878793          	addi	a5,a5,56 # 20000038 <_edata>
     34e:	4398                	lw	a4,0(a5)
     350:	4585                	li	a1,1
     352:	40000537          	lui	a0,0x40000
     356:	0705                	addi	a4,a4,1
     358:	c398                	sw	a4,0(a5)
     35a:	4b4010ef          	jal	ra,180e <TIM_ClearITPendingBit>
     35e:	30200073          	mret

00000362 <timer_init>:
     362:	d4bff2ef          	jal	t0,ac <__riscv_save_0>
     366:	1131                	addi	sp,sp,-20
     368:	4585                	li	a1,1
     36a:	4505                	li	a0,1
     36c:	c402                	sw	zero,8(sp)
     36e:	c602                	sw	zero,12(sp)
     370:	00011823          	sh	zero,16(sp)
     374:	c002                	sw	zero,0(sp)
     376:	c202                	sw	zero,4(sp)
     378:	34c010ef          	jal	ra,16c4 <RCC_APB1PeriphClockCmd>
     37c:	200007b7          	lui	a5,0x20000
     380:	00c7a503          	lw	a0,12(a5) # 2000000c <_highcode_vma_end>
     384:	6589                	lui	a1,0x2
     386:	71058593          	addi	a1,a1,1808 # 2710 <__gesf2+0x3e>
     38a:	3b99                	jal	e0 <__udivsi3>
     38c:	157d                	addi	a0,a0,-1
     38e:	47a5                	li	a5,9
     390:	8468                	sh	a0,8(sp)
     392:	002c                	addi	a1,sp,8
     394:	40000537          	lui	a0,0x40000
     398:	c63e                	sw	a5,12(sp)
     39a:	00011523          	sh	zero,10(sp)
     39e:	3e0010ef          	jal	ra,177e <TIM_TimeBaseInit>
     3a2:	4605                	li	a2,1
     3a4:	4585                	li	a1,1
     3a6:	40000537          	lui	a0,0x40000
     3aa:	43a010ef          	jal	ra,17e4 <TIM_ITConfig>
     3ae:	02600793          	li	a5,38
     3b2:	807c                	sh	a5,0(sp)
     3b4:	4785                	li	a5,1
     3b6:	815c                	sb	a5,2(sp)
     3b8:	850a                	mv	a0,sp
     3ba:	4785                	li	a5,1
     3bc:	c23e                	sw	a5,4(sp)
     3be:	17c010ef          	jal	ra,153a <NVIC_Init>
     3c2:	4585                	li	a1,1
     3c4:	40000537          	lui	a0,0x40000
     3c8:	404010ef          	jal	ra,17cc <TIM_Cmd>
     3cc:	0151                	addi	sp,sp,20
     3ce:	b1e5                	j	b6 <__riscv_restore_0>

000003d0 <gpio_init>:
     3d0:	cddff2ef          	jal	t0,ac <__riscv_save_0>
     3d4:	1151                	addi	sp,sp,-12
     3d6:	4585                	li	a1,1
     3d8:	02400513          	li	a0,36
     3dc:	40011437          	lui	s0,0x40011
     3e0:	c002                	sw	zero,0(sp)
     3e2:	c202                	sw	zero,4(sp)
     3e4:	c402                	sw	zero,8(sp)
     3e6:	2c0010ef          	jal	ra,16a6 <RCC_APB2PeriphClockCmd>
     3ea:	04000793          	li	a5,64
     3ee:	04800493          	li	s1,72
     3f2:	858a                	mv	a1,sp
     3f4:	40040513          	addi	a0,s0,1024 # 40011400 <__global_pointer$+0x20010bc8>
     3f8:	807c                	sh	a5,0(sp)
     3fa:	c426                	sw	s1,8(sp)
     3fc:	08e010ef          	jal	ra,148a <GPIO_Init>
     400:	4791                	li	a5,4
     402:	807c                	sh	a5,0(sp)
     404:	47c1                	li	a5,16
     406:	c43e                	sw	a5,8(sp)
     408:	858a                	mv	a1,sp
     40a:	478d                	li	a5,3
     40c:	40040513          	addi	a0,s0,1024
     410:	c23e                	sw	a5,4(sp)
     412:	078010ef          	jal	ra,148a <GPIO_Init>
     416:	40040513          	addi	a0,s0,1024
     41a:	4591                	li	a1,4
     41c:	0f4010ef          	jal	ra,1510 <GPIO_SetBits>
     420:	4585                	li	a1,1
     422:	4541                	li	a0,16
     424:	282010ef          	jal	ra,16a6 <RCC_APB2PeriphClockCmd>
     428:	47dd                	li	a5,23
     42a:	858a                	mv	a1,sp
     42c:	40011537          	lui	a0,0x40011
     430:	807c                	sh	a5,0(sp)
     432:	c426                	sw	s1,8(sp)
     434:	056010ef          	jal	ra,148a <GPIO_Init>
     438:	3d21                	jal	250 <exti_init>
     43a:	0131                	addi	sp,sp,12
     43c:	b9ad                	j	b6 <__riscv_restore_0>

0000043e <read_internal_probes>:
     43e:	c6fff2ef          	jal	t0,ac <__riscv_save_0>
     442:	1131                	addi	sp,sp,-20
     444:	4585                	li	a1,1
     446:	4541                	li	a0,16
     448:	c402                	sw	zero,8(sp)
     44a:	c602                	sw	zero,12(sp)
     44c:	c802                	sw	zero,16(sp)
     44e:	258010ef          	jal	ra,16a6 <RCC_APB2PeriphClockCmd>
     452:	47dd                	li	a5,23
     454:	002c                	addi	a1,sp,8
     456:	847c                	sh	a5,8(sp)
     458:	40011537          	lui	a0,0x40011
     45c:	04800793          	li	a5,72
     460:	c83e                	sw	a5,16(sp)
     462:	028010ef          	jal	ra,148a <GPIO_Init>
     466:	03200513          	li	a0,50
     46a:	4d8010ef          	jal	ra,1942 <Delay_Ms>
     46e:	4585                	li	a1,1
     470:	40011537          	lui	a0,0x40011
     474:	092010ef          	jal	ra,1506 <GPIO_ReadInputDataBit>
     478:	4589                	li	a1,2
     47a:	842a                	mv	s0,a0
     47c:	40011537          	lui	a0,0x40011
     480:	086010ef          	jal	ra,1506 <GPIO_ReadInputDataBit>
     484:	4591                	li	a1,4
     486:	84aa                	mv	s1,a0
     488:	40011537          	lui	a0,0x40011
     48c:	07a010ef          	jal	ra,1506 <GPIO_ReadInputDataBit>
     490:	c02a                	sw	a0,0(sp)
     492:	45c1                	li	a1,16
     494:	40011537          	lui	a0,0x40011
     498:	06e010ef          	jal	ra,1506 <GPIO_ReadInputDataBit>
     49c:	832a                	mv	t1,a0
     49e:	00153593          	seqz	a1,a0
     4a2:	cd15                	beqz	a0,4de <read_internal_probes+0xa0>
     4a4:	4782                	lw	a5,0(sp)
     4a6:	cf85                	beqz	a5,4de <read_internal_probes+0xa0>
     4a8:	cc85                	beqz	s1,4e0 <read_internal_probes+0xa2>
     4aa:	00143413          	seqz	s0,s0
     4ae:	4481                	li	s1,0
     4b0:	4781                	li	a5,0
     4b2:	00003537          	lui	a0,0x3
     4b6:	8722                	mv	a4,s0
     4b8:	86be                	mv	a3,a5
     4ba:	8626                	mv	a2,s1
     4bc:	3f450513          	addi	a0,a0,1012 # 33f4 <PAIRING_ADDR+0x408>
     4c0:	c21a                	sw	t1,4(sp)
     4c2:	c03e                	sw	a5,0(sp)
     4c4:	307010ef          	jal	ra,1fca <printf>
     4c8:	4312                	lw	t1,4(sp)
     4ca:	00030e63          	beqz	t1,4e6 <read_internal_probes+0xa8>
     4ce:	ec99                	bnez	s1,4ec <read_internal_probes+0xae>
     4d0:	4782                	lw	a5,0(sp)
     4d2:	e385                	bnez	a5,4f2 <read_internal_probes+0xb4>
     4d4:	c011                	beqz	s0,4d8 <read_internal_probes+0x9a>
     4d6:	4465                	li	s0,25
     4d8:	8522                	mv	a0,s0
     4da:	0151                	addi	sp,sp,20
     4dc:	bee9                	j	b6 <__riscv_restore_0>
     4de:	4485                	li	s1,1
     4e0:	4785                	li	a5,1
     4e2:	4405                	li	s0,1
     4e4:	b7f9                	j	4b2 <read_internal_probes+0x74>
     4e6:	06400413          	li	s0,100
     4ea:	b7fd                	j	4d8 <read_internal_probes+0x9a>
     4ec:	04b00413          	li	s0,75
     4f0:	b7e5                	j	4d8 <read_internal_probes+0x9a>
     4f2:	03200413          	li	s0,50
     4f6:	b7cd                	j	4d8 <read_internal_probes+0x9a>

000004f8 <read_tank_level>:
     4f8:	bb5ff2ef          	jal	t0,ac <__riscv_save_0>
     4fc:	3789                	jal	43e <read_internal_probes>
     4fe:	84aa                	mv	s1,a0
     500:	3f3d                	jal	43e <read_internal_probes>
     502:	842a                	mv	s0,a0
     504:	3f2d                	jal	43e <read_internal_probes>
     506:	87a2                	mv	a5,s0
     508:	0084e363          	bltu	s1,s0,50e <read_tank_level+0x16>
     50c:	87a6                	mv	a5,s1
     50e:	0ff7f713          	andi	a4,a5,255
     512:	0ff57413          	andi	s0,a0,255
     516:	00e57463          	bgeu	a0,a4,51e <read_tank_level+0x26>
     51a:	0ff7f413          	andi	s0,a5,255
     51e:	c801                	beqz	s0,52e <read_tank_level+0x36>
     520:	00003537          	lui	a0,0x3
     524:	85a2                	mv	a1,s0
     526:	42050513          	addi	a0,a0,1056 # 3420 <PAIRING_ADDR+0x434>
     52a:	2a1010ef          	jal	ra,1fca <printf>
     52e:	8522                	mv	a0,s0
     530:	b659                	j	b6 <__riscv_restore_0>

00000532 <adc_init>:
     532:	b7bff2ef          	jal	t0,ac <__riscv_save_0>
     536:	fdc10113          	addi	sp,sp,-36
     53a:	4661                	li	a2,24
     53c:	4581                	li	a1,0
     53e:	0068                	addi	a0,sp,12
     540:	3919                	jal	156 <memset>
     542:	4585                	li	a1,1
     544:	20400513          	li	a0,516
     548:	c002                	sw	zero,0(sp)
     54a:	c202                	sw	zero,4(sp)
     54c:	c402                	sw	zero,8(sp)
     54e:	158010ef          	jal	ra,16a6 <RCC_APB2PeriphClockCmd>
     552:	6531                	lui	a0,0xc
     554:	088010ef          	jal	ra,15dc <RCC_ADCCLKConfig>
     558:	40011537          	lui	a0,0x40011
     55c:	4789                	li	a5,2
     55e:	858a                	mv	a1,sp
     560:	80050513          	addi	a0,a0,-2048 # 40010800 <__global_pointer$+0x2000ffc8>
     564:	40012437          	lui	s0,0x40012
     568:	807c                	sh	a5,0(sp)
     56a:	c402                	sw	zero,8(sp)
     56c:	71f000ef          	jal	ra,148a <GPIO_Init>
     570:	40040513          	addi	a0,s0,1024 # 40012400 <__global_pointer$+0x20011bc8>
     574:	42b000ef          	jal	ra,119e <ADC_DeInit>
     578:	000e07b7          	lui	a5,0xe0
     57c:	cc3e                	sw	a5,24(sp)
     57e:	006c                	addi	a1,sp,12
     580:	4785                	li	a5,1
     582:	40040513          	addi	a0,s0,1024
     586:	02f10023          	sb	a5,32(sp)
     58a:	c602                	sw	zero,12(sp)
     58c:	c802                	sw	zero,16(sp)
     58e:	ca02                	sw	zero,20(sp)
     590:	ce02                	sw	zero,28(sp)
     592:	433000ef          	jal	ra,11c4 <ADC_Init>
     596:	4585                	li	a1,1
     598:	40040513          	addi	a0,s0,1024
     59c:	477000ef          	jal	ra,1212 <ADC_Cmd>
     5a0:	40040513          	addi	a0,s0,1024
     5a4:	47f000ef          	jal	ra,1222 <ADC_ResetCalibration>
     5a8:	40040493          	addi	s1,s0,1024
     5ac:	8526                	mv	a0,s1
     5ae:	47f000ef          	jal	ra,122c <ADC_GetResetCalibrationStatus>
     5b2:	fd6d                	bnez	a0,5ac <adc_init+0x7a>
     5b4:	40040513          	addi	a0,s0,1024
     5b8:	40012437          	lui	s0,0x40012
     5bc:	479000ef          	jal	ra,1234 <ADC_StartCalibration>
     5c0:	40040413          	addi	s0,s0,1024 # 40012400 <__global_pointer$+0x20011bc8>
     5c4:	8522                	mv	a0,s0
     5c6:	479000ef          	jal	ra,123e <ADC_GetCalibrationStatus>
     5ca:	fd6d                	bnez	a0,5c4 <adc_init+0x92>
     5cc:	02410113          	addi	sp,sp,36
     5d0:	b4dd                	j	b6 <__riscv_restore_0>

000005d2 <enter_deep_sleep>:
     5d2:	adbff2ef          	jal	t0,ac <__riscv_save_0>
     5d6:	00003537          	lui	a0,0x3
     5da:	ff050513          	addi	a0,a0,-16 # 2ff0 <PAIRING_ADDR+0x4>
     5de:	211010ef          	jal	ra,1fee <puts>
     5e2:	03200513          	li	a0,50
     5e6:	35c010ef          	jal	ra,1942 <Delay_Ms>
     5ea:	56fd                	li	a3,-1
     5ec:	40010737          	lui	a4,0x40010
     5f0:	40d72a23          	sw	a3,1044(a4) # 40010414 <__global_pointer$+0x2000fbdc>
     5f4:	400076b7          	lui	a3,0x40007
     5f8:	429c                	lw	a5,0(a3)
     5fa:	9bf5                	andi	a5,a5,-3
     5fc:	c29c                	sw	a5,0(a3)
     5fe:	e000f7b7          	lui	a5,0xe000f
     602:	d107a683          	lw	a3,-752(a5) # e000ed10 <__global_pointer$+0xc000e4d8>
     606:	0046e693          	ori	a3,a3,4
     60a:	d0d7a823          	sw	a3,-752(a5)
     60e:	d107a683          	lw	a3,-752(a5)
     612:	8a91                	andi	a3,a3,4
     614:	0e068763          	beqz	a3,702 <enter_deep_sleep+0x130>
     618:	08800793          	li	a5,136
     61c:	3007b073          	csrc	mstatus,a5
     620:	0000100f          	fence.i
     624:	40472483          	lw	s1,1028(a4)
     628:	40072783          	lw	a5,1024(a4)
     62c:	40472683          	lw	a3,1028(a4)
     630:	8fd5                	or	a5,a5,a3
     632:	40f72223          	sw	a5,1028(a4)
     636:	e000f437          	lui	s0,0xe000f
     63a:	d1042703          	lw	a4,-752(s0) # e000ed10 <__global_pointer$+0xc000e4d8>
     63e:	d1042783          	lw	a5,-752(s0)
     642:	454d                	li	a0,19
     644:	02077713          	andi	a4,a4,32
     648:	0287e793          	ori	a5,a5,40
     64c:	d0f42823          	sw	a5,-752(s0)
     650:	d1042783          	lw	a5,-752(s0)
     654:	fdf7f793          	andi	a5,a5,-33
     658:	8fd9                	or	a5,a5,a4
     65a:	d0f42823          	sw	a5,-752(s0)
     65e:	d1042783          	lw	a5,-752(s0)
     662:	0087e793          	ori	a5,a5,8
     666:	d0f42823          	sw	a5,-752(s0)
     66a:	20000097          	auipc	ra,0x20000
     66e:	996080e7          	jalr	-1642(ra) # 20000000 <WFE>
     672:	d1042783          	lw	a5,-752(s0)
     676:	454d                	li	a0,19
     678:	0087e793          	ori	a5,a5,8
     67c:	d0f42823          	sw	a5,-752(s0)
     680:	20000097          	auipc	ra,0x20000
     684:	980080e7          	jalr	-1664(ra) # 20000000 <WFE>
     688:	d1042783          	lw	a5,-752(s0)
     68c:	8b91                	andi	a5,a5,4
     68e:	cbc1                	beqz	a5,71e <enter_deep_sleep+0x14c>
     690:	400107b7          	lui	a5,0x40010
     694:	4097a223          	sw	s1,1028(a5) # 40010404 <__global_pointer$+0x2000fbcc>
     698:	08800793          	li	a5,136
     69c:	3007a073          	csrs	mstatus,a5
     6a0:	e000f737          	lui	a4,0xe000f
     6a4:	d1072783          	lw	a5,-752(a4) # e000ed10 <__global_pointer$+0xc000e4d8>
     6a8:	40011437          	lui	s0,0x40011
     6ac:	9bed                	andi	a5,a5,-5
     6ae:	d0f72823          	sw	a5,-752(a4)
     6b2:	1ff000ef          	jal	ra,10b0 <SystemCoreClockUpdate>
     6b6:	400107b7          	lui	a5,0x40010
     6ba:	577d                	li	a4,-1
     6bc:	00003537          	lui	a0,0x3
     6c0:	40e7aa23          	sw	a4,1044(a5) # 40010414 <__global_pointer$+0x2000fbdc>
     6c4:	01050513          	addi	a0,a0,16 # 3010 <PAIRING_ADDR+0x24>
     6c8:	127010ef          	jal	ra,1fee <puts>
     6cc:	4591                	li	a1,4
     6ce:	40040513          	addi	a0,s0,1024 # 40011400 <__global_pointer$+0x20010bc8>
     6d2:	643000ef          	jal	ra,1514 <GPIO_ResetBits>
     6d6:	03200513          	li	a0,50
     6da:	268010ef          	jal	ra,1942 <Delay_Ms>
     6de:	40040513          	addi	a0,s0,1024
     6e2:	4591                	li	a1,4
     6e4:	62d000ef          	jal	ra,1510 <GPIO_SetBits>
     6e8:	4585                	li	a1,1
     6ea:	23500513          	li	a0,565
     6ee:	7b9000ef          	jal	ra,16a6 <RCC_APB2PeriphClockCmd>
     6f2:	39f9                	jal	3d0 <gpio_init>
     6f4:	3d3d                	jal	532 <adc_init>
     6f6:	3ea9                	jal	250 <exti_init>
     6f8:	0c800513          	li	a0,200
     6fc:	246010ef          	jal	ra,1942 <Delay_Ms>
     700:	ba5d                	j	b6 <__riscv_restore_0>
     702:	d107a703          	lw	a4,-752(a5)
     706:	01076713          	ori	a4,a4,16
     70a:	d0e7a823          	sw	a4,-752(a5)
     70e:	08800793          	li	a5,136
     712:	3007b073          	csrc	mstatus,a5
     716:	0000100f          	fence.i
     71a:	4481                	li	s1,0
     71c:	bf29                	j	636 <enter_deep_sleep+0x64>
     71e:	d1042783          	lw	a5,-752(s0)
     722:	9bbd                	andi	a5,a5,-17
     724:	d0f42823          	sw	a5,-752(s0)
     728:	bf85                	j	698 <enter_deep_sleep+0xc6>

0000072a <get_adc_val>:
     72a:	983ff2ef          	jal	t0,ac <__riscv_save_0>
     72e:	40012437          	lui	s0,0x40012
     732:	85aa                	mv	a1,a0
     734:	469d                	li	a3,7
     736:	4605                	li	a2,1
     738:	40040513          	addi	a0,s0,1024 # 40012400 <__global_pointer$+0x20011bc8>
     73c:	323000ef          	jal	ra,125e <ADC_RegularChannelConfig>
     740:	4585                	li	a1,1
     742:	40040513          	addi	a0,s0,1024
     746:	301000ef          	jal	ra,1246 <ADC_SoftwareStartConvCmd>
     74a:	40040493          	addi	s1,s0,1024
     74e:	4589                	li	a1,2
     750:	8526                	mv	a0,s1
     752:	3cf000ef          	jal	ra,1320 <ADC_GetFlagStatus>
     756:	dd65                	beqz	a0,74e <get_adc_val+0x24>
     758:	40040513          	addi	a0,s0,1024
     75c:	3bd000ef          	jal	ra,1318 <ADC_GetConversionValue>
     760:	957ff06f          	j	b6 <__riscv_restore_0>

00000764 <read_battery_level>:
     764:	949ff2ef          	jal	t0,ac <__riscv_save_0>
     768:	1171                	addi	sp,sp,-4
     76a:	44c1                	li	s1,16
     76c:	4401                	li	s0,0
     76e:	4521                	li	a0,8
     770:	3f6d                	jal	72a <get_adc_val>
     772:	14fd                	addi	s1,s1,-1
     774:	942a                	add	s0,s0,a0
     776:	fce5                	bnez	s1,76e <read_battery_level+0xa>
     778:	8011                	srli	s0,s0,0x4
     77a:	0442                	slli	s0,s0,0x10
     77c:	8041                	srli	s0,s0,0x10
     77e:	e411                	bnez	s0,78a <read_battery_level+0x26>
     780:	4781                	li	a5,0
     782:	853e                	mv	a0,a5
     784:	0111                	addi	sp,sp,4
     786:	931ff06f          	j	b6 <__riscv_restore_0>
     78a:	47c1                	li	a5,16
     78c:	4481                	li	s1,0
     78e:	4505                	li	a0,1
     790:	c03e                	sw	a5,0(sp)
     792:	3f61                	jal	72a <get_adc_val>
     794:	4782                	lw	a5,0(sp)
     796:	94aa                	add	s1,s1,a0
     798:	17fd                	addi	a5,a5,-1
     79a:	fbf5                	bnez	a5,78e <read_battery_level+0x2a>
     79c:	0044d513          	srli	a0,s1,0x4
     7a0:	0542                	slli	a0,a0,0x10
     7a2:	8141                	srli	a0,a0,0x10
     7a4:	70c020ef          	jal	ra,2eb0 <__floatunsisf>
     7a8:	000037b7          	lui	a5,0x3
     7ac:	3bc7a583          	lw	a1,956(a5) # 33bc <PAIRING_ADDR+0x3d0>
     7b0:	034020ef          	jal	ra,27e4 <__mulsf3>
     7b4:	85aa                	mv	a1,a0
     7b6:	083010ef          	jal	ra,2038 <__addsf3>
     7ba:	84aa                	mv	s1,a0
     7bc:	8522                	mv	a0,s0
     7be:	6f2020ef          	jal	ra,2eb0 <__floatunsisf>
     7c2:	85aa                	mv	a1,a0
     7c4:	8526                	mv	a0,s1
     7c6:	3ff010ef          	jal	ra,23c4 <__divsf3>
     7ca:	000034b7          	lui	s1,0x3
     7ce:	3c04a583          	lw	a1,960(s1) # 33c0 <PAIRING_ADDR+0x3d4>
     7d2:	842a                	mv	s0,a0
     7d4:	010020ef          	jal	ra,27e4 <__mulsf3>
     7d8:	622020ef          	jal	ra,2dfa <__fixsfsi>
     7dc:	06400593          	li	a1,100
     7e0:	951ff0ef          	jal	ra,130 <__modsi3>
     7e4:	c02a                	sw	a0,0(sp)
     7e6:	8522                	mv	a0,s0
     7e8:	612020ef          	jal	ra,2dfa <__fixsfsi>
     7ec:	4602                	lw	a2,0(sp)
     7ee:	85aa                	mv	a1,a0
     7f0:	00003537          	lui	a0,0x3
     7f4:	3d050513          	addi	a0,a0,976 # 33d0 <PAIRING_ADDR+0x3e4>
     7f8:	7d2010ef          	jal	ra,1fca <printf>
     7fc:	000037b7          	lui	a5,0x3
     800:	3c47a583          	lw	a1,964(a5) # 33c4 <PAIRING_ADDR+0x3d8>
     804:	8522                	mv	a0,s0
     806:	6cd010ef          	jal	ra,26d2 <__gesf2>
     80a:	06400793          	li	a5,100
     80e:	f6055ae3          	bgez	a0,782 <read_battery_level+0x1e>
     812:	000037b7          	lui	a5,0x3
     816:	3c87a783          	lw	a5,968(a5) # 33c8 <PAIRING_ADDR+0x3dc>
     81a:	8522                	mv	a0,s0
     81c:	85be                	mv	a1,a5
     81e:	c03e                	sw	a5,0(sp)
     820:	739010ef          	jal	ra,2758 <__lesf2>
     824:	f4a05ee3          	blez	a0,780 <read_battery_level+0x1c>
     828:	4782                	lw	a5,0(sp)
     82a:	8522                	mv	a0,s0
     82c:	85be                	mv	a1,a5
     82e:	246020ef          	jal	ra,2a74 <__subsf3>
     832:	3c04a583          	lw	a1,960(s1)
     836:	7af010ef          	jal	ra,27e4 <__mulsf3>
     83a:	000037b7          	lui	a5,0x3
     83e:	3cc7a583          	lw	a1,972(a5) # 33cc <PAIRING_ADDR+0x3e0>
     842:	383010ef          	jal	ra,23c4 <__divsf3>
     846:	614020ef          	jal	ra,2e5a <__fixunssfsi>
     84a:	0ff57793          	andi	a5,a0,255
     84e:	bf15                	j	782 <read_battery_level+0x1e>

00000850 <generate_new_tank_id>:
     850:	200007b7          	lui	a5,0x20000
     854:	0387a503          	lw	a0,56(a5) # 20000038 <_edata>
     858:	00d51793          	slli	a5,a0,0xd
     85c:	8fa9                	xor	a5,a5,a0
     85e:	0117d513          	srli	a0,a5,0x11
     862:	8fa9                	xor	a5,a5,a0
     864:	00579513          	slli	a0,a5,0x5
     868:	8d3d                	xor	a0,a0,a5
     86a:	0542                	slli	a0,a0,0x10
     86c:	8141                	srli	a0,a0,0x10
     86e:	e111                	bnez	a0,872 <generate_new_tank_id+0x22>
     870:	4505                	li	a0,1
     872:	8082                	ret

00000874 <calculate_checksum>:
     874:	4701                	li	a4,0
     876:	4781                	li	a5,0
     878:	15fd                	addi	a1,a1,-1
     87a:	00b74463          	blt	a4,a1,882 <calculate_checksum+0xe>
     87e:	853e                	mv	a0,a5
     880:	8082                	ret
     882:	00e506b3          	add	a3,a0,a4
     886:	2294                	lbu	a3,0(a3)
     888:	8fb5                	xor	a5,a5,a3
     88a:	46a1                	li	a3,8
     88c:	01879313          	slli	t1,a5,0x18
     890:	00179613          	slli	a2,a5,0x1
     894:	41835313          	srai	t1,t1,0x18
     898:	0ff67793          	andi	a5,a2,255
     89c:	00035663          	bgez	t1,8a8 <calculate_checksum+0x34>
     8a0:	00764793          	xori	a5,a2,7
     8a4:	0ff7f793          	andi	a5,a5,255
     8a8:	16fd                	addi	a3,a3,-1
     8aa:	0ff6f693          	andi	a3,a3,255
     8ae:	fef9                	bnez	a3,88c <calculate_checksum+0x18>
     8b0:	0705                	addi	a4,a4,1
     8b2:	0ff77713          	andi	a4,a4,255
     8b6:	b7d1                	j	87a <calculate_checksum+0x6>

000008b8 <run_pairing>:
     8b8:	ff4ff2ef          	jal	t0,ac <__riscv_save_0>
     8bc:	1101                	addi	sp,sp,-32
     8be:	2bbd                	jal	e3c <nrf24_init>
     8c0:	06400513          	li	a0,100
     8c4:	07e010ef          	jal	ra,1942 <Delay_Ms>
     8c8:	3761                	jal	850 <generate_new_tank_id>
     8ca:	200007b7          	lui	a5,0x20000
     8ce:	4705                	li	a4,1
     8d0:	03c78793          	addi	a5,a5,60 # 2000003c <g_settings>
     8d4:	a3b8                	sb	a4,2(a5)
     8d6:	842a                	mv	s0,a0
     8d8:	a38a                	sh	a0,0(a5)
     8da:	3415                	jal	2fe <flash_save_settings>
     8dc:	00003537          	lui	a0,0x3
     8e0:	85a2                	mv	a1,s0
     8e2:	44450513          	addi	a0,a0,1092 # 3444 <PAIRING_ADDR+0x458>
     8e6:	6e4010ef          	jal	ra,1fca <printf>
     8ea:	4669                	li	a2,26
     8ec:	4581                	li	a1,0
     8ee:	00610513          	addi	a0,sp,6
     8f2:	865ff0ef          	jal	ra,156 <memset>
     8f6:	200157b7          	lui	a5,0x20015
     8fa:	5aa78793          	addi	a5,a5,1450 # 200155aa <__global_pointer$+0x14d72>
     8fe:	c03e                	sw	a5,0(sp)
     900:	8260                	sh	s0,4(sp)
     902:	3edd                	jal	4f8 <read_tank_level>
     904:	8348                	sb	a0,6(sp)
     906:	3db9                	jal	764 <read_battery_level>
     908:	47c1                	li	a5,16
     90a:	02000593          	li	a1,32
     90e:	83c8                	sb	a0,7(sp)
     910:	850a                	mv	a0,sp
     912:	845c                	sb	a5,8(sp)
     914:	3785                	jal	874 <calculate_checksum>
     916:	00a10fa3          	sb	a0,31(sp)
     91a:	00003537          	lui	a0,0x3
     91e:	46450513          	addi	a0,a0,1124 # 3464 <PAIRING_ADDR+0x478>
     922:	6cc010ef          	jal	ra,1fee <puts>
     926:	67e000ef          	jal	ra,fa4 <nrf24_power_up_tx>
     92a:	650d                	lui	a0,0x3
     92c:	fec50513          	addi	a0,a0,-20 # 2fec <PAIRING_ADDR>
     930:	648000ef          	jal	ra,f78 <nrf24_set_tx_addr>
     934:	4401                	li	s0,0
     936:	45a9                	li	a1,10
     938:	8522                	mv	a0,s0
     93a:	ff6ff0ef          	jal	ra,130 <__modsi3>
     93e:	4791                	li	a5,4
     940:	4591                	li	a1,4
     942:	04a7c663          	blt	a5,a0,98e <run_pairing+0xd6>
     946:	40011537          	lui	a0,0x40011
     94a:	40050513          	addi	a0,a0,1024 # 40011400 <__global_pointer$+0x20010bc8>
     94e:	3c7000ef          	jal	ra,1514 <GPIO_ResetBits>
     952:	02000593          	li	a1,32
     956:	850a                	mv	a0,sp
     958:	660000ef          	jal	ra,fb8 <nrf24_send>
     95c:	03200513          	li	a0,50
     960:	7e3000ef          	jal	ra,1942 <Delay_Ms>
     964:	0405                	addi	s0,s0,1
     966:	25800793          	li	a5,600
     96a:	fcf416e3          	bne	s0,a5,936 <run_pairing+0x7e>
     96e:	40011537          	lui	a0,0x40011
     972:	4591                	li	a1,4
     974:	40050513          	addi	a0,a0,1024 # 40011400 <__global_pointer$+0x20010bc8>
     978:	399000ef          	jal	ra,1510 <GPIO_SetBits>
     97c:	00003537          	lui	a0,0x3
     980:	48450513          	addi	a0,a0,1156 # 3484 <PAIRING_ADDR+0x498>
     984:	66a010ef          	jal	ra,1fee <puts>
     988:	6105                	addi	sp,sp,32
     98a:	f2cff06f          	j	b6 <__riscv_restore_0>
     98e:	40011537          	lui	a0,0x40011
     992:	40050513          	addi	a0,a0,1024 # 40011400 <__global_pointer$+0x20010bc8>
     996:	37b000ef          	jal	ra,1510 <GPIO_SetBits>
     99a:	bf65                	j	952 <run_pairing+0x9a>

0000099c <main>:
     99c:	f10ff2ef          	jal	t0,ac <__riscv_save_0>
     9a0:	7139                	addi	sp,sp,-64
     9a2:	70e000ef          	jal	ra,10b0 <SystemCoreClockUpdate>
     9a6:	769000ef          	jal	ra,190e <Delay_Init>
     9aa:	6571                	lui	a0,0x1c
     9ac:	20050513          	addi	a0,a0,512 # 1c200 <_data_lma+0x18ab8>
     9b0:	7cd000ef          	jal	ra,197c <USART_Printf_Init>
     9b4:	00003537          	lui	a0,0x3
     9b8:	06850513          	addi	a0,a0,104 # 3068 <PAIRING_ADDR+0x7c>
     9bc:	632010ef          	jal	ra,1fee <puts>
     9c0:	200007b7          	lui	a5,0x20000
     9c4:	00c7a583          	lw	a1,12(a5) # 2000000c <_highcode_vma_end>
     9c8:	00003537          	lui	a0,0x3
     9cc:	08850513          	addi	a0,a0,136 # 3088 <PAIRING_ADDR+0x9c>
     9d0:	5fa010ef          	jal	ra,1fca <printf>
     9d4:	98fff0ef          	jal	ra,362 <timer_init>
     9d8:	9f9ff0ef          	jal	ra,3d0 <gpio_init>
     9dc:	3e99                	jal	532 <adc_init>
     9de:	821ff0ef          	jal	ra,1fe <pwr_sleep_init>
     9e2:	00003537          	lui	a0,0x3
     9e6:	0a850513          	addi	a0,a0,168 # 30a8 <PAIRING_ADDR+0xbc>
     9ea:	5e0010ef          	jal	ra,1fca <printf>
     9ee:	6505                	lui	a0,0x1
     9f0:	38850513          	addi	a0,a0,904 # 1388 <EXTI_Init+0x5e>
     9f4:	74f000ef          	jal	ra,1942 <Delay_Ms>
     9f8:	00003537          	lui	a0,0x3
     9fc:	0d450513          	addi	a0,a0,212 # 30d4 <PAIRING_ADDR+0xe8>
     a00:	5ee010ef          	jal	ra,1fee <puts>
     a04:	08800793          	li	a5,136
     a08:	3007a073          	csrs	mstatus,a5
     a0c:	00003537          	lui	a0,0x3
     a10:	0dc50513          	addi	a0,a0,220 # 30dc <PAIRING_ADDR+0xf0>
     a14:	5da010ef          	jal	ra,1fee <puts>
     a18:	2115                	jal	e3c <nrf24_init>
     a1a:	20000437          	lui	s0,0x20000
     a1e:	62a000ef          	jal	ra,1048 <nrf24_power_down>
     a22:	8b5ff0ef          	jal	ra,2d6 <flash_read_settings>
     a26:	03c40793          	addi	a5,s0,60 # 2000003c <g_settings>
     a2a:	23b8                	lbu	a4,2(a5)
     a2c:	4785                	li	a5,1
     a2e:	03c40413          	addi	s0,s0,60
     a32:	16f71f63          	bne	a4,a5,bb0 <main+0x214>
     a36:	200e                	lhu	a1,0(s0)
     a38:	00003537          	lui	a0,0x3
     a3c:	0fc50513          	addi	a0,a0,252 # 30fc <PAIRING_ADDR+0x110>
     a40:	58a010ef          	jal	ra,1fca <printf>
     a44:	650d                	lui	a0,0x3
     a46:	fec50513          	addi	a0,a0,-20 # 2fec <PAIRING_ADDR>
     a4a:	233d                	jal	f78 <nrf24_set_tx_addr>
     a4c:	00003537          	lui	a0,0x3
     a50:	16850513          	addi	a0,a0,360 # 3168 <PAIRING_ADDR+0x17c>
     a54:	576010ef          	jal	ra,1fca <printf>
     a58:	200004b7          	lui	s1,0x20000
     a5c:	03848793          	addi	a5,s1,56 # 20000038 <_edata>
     a60:	4398                	lw	a4,0(a5)
     a62:	3e800513          	li	a0,1000
     a66:	c03a                	sw	a4,0(sp)
     a68:	6db000ef          	jal	ra,1942 <Delay_Ms>
     a6c:	03848793          	addi	a5,s1,56
     a70:	438c                	lw	a1,0(a5)
     a72:	4702                	lw	a4,0(sp)
     a74:	00003537          	lui	a0,0x3
     a78:	19450513          	addi	a0,a0,404 # 3194 <PAIRING_ADDR+0x1a8>
     a7c:	8d99                	sub	a1,a1,a4
     a7e:	54c010ef          	jal	ra,1fca <printf>
     a82:	03848713          	addi	a4,s1,56
     a86:	478d                	li	a5,3
     a88:	cc3a                	sw	a4,24(sp)
     a8a:	400114b7          	lui	s1,0x40011
     a8e:	4591                	li	a1,4
     a90:	40048513          	addi	a0,s1,1024 # 40011400 <__global_pointer$+0x20010bc8>
     a94:	c03e                	sw	a5,0(sp)
     a96:	27f000ef          	jal	ra,1514 <GPIO_ResetBits>
     a9a:	1f400513          	li	a0,500
     a9e:	6a5000ef          	jal	ra,1942 <Delay_Ms>
     aa2:	4591                	li	a1,4
     aa4:	40048513          	addi	a0,s1,1024
     aa8:	269000ef          	jal	ra,1510 <GPIO_SetBits>
     aac:	1f400513          	li	a0,500
     ab0:	693000ef          	jal	ra,1942 <Delay_Ms>
     ab4:	4782                	lw	a5,0(sp)
     ab6:	17fd                	addi	a5,a5,-1
     ab8:	fbe9                	bnez	a5,a8a <main+0xee>
     aba:	40048513          	addi	a0,s1,1024
     abe:	4591                	li	a1,4
     ac0:	251000ef          	jal	ra,1510 <GPIO_SetBits>
     ac4:	00003537          	lui	a0,0x3
     ac8:	1b450513          	addi	a0,a0,436 # 31b4 <PAIRING_ADDR+0x1c8>
     acc:	522010ef          	jal	ra,1fee <puts>
     ad0:	0ff00793          	li	a5,255
     ad4:	c602                	sw	zero,12(sp)
     ad6:	ca02                	sw	zero,20(sp)
     ad8:	4481                	li	s1,0
     ada:	c03e                	sw	a5,0(sp)
     adc:	c402                	sw	zero,8(sp)
     ade:	c202                	sw	zero,4(sp)
     ae0:	4781                	li	a5,0
     ae2:	c802                	sw	zero,16(sp)
     ae4:	40011537          	lui	a0,0x40011
     ae8:	04000593          	li	a1,64
     aec:	40050513          	addi	a0,a0,1024 # 40011400 <__global_pointer$+0x20010bc8>
     af0:	ce3e                	sw	a5,28(sp)
     af2:	215000ef          	jal	ra,1506 <GPIO_ReadInputDataBit>
     af6:	0c051463          	bnez	a0,bbe <main+0x222>
     afa:	4742                	lw	a4,16(sp)
     afc:	47f2                	lw	a5,28(sp)
     afe:	e701                	bnez	a4,b06 <main+0x16a>
     b00:	4762                	lw	a4,24(sp)
     b02:	4318                	lw	a4,0(a4)
     b04:	c83a                	sw	a4,16(sp)
     b06:	4762                	lw	a4,24(sp)
     b08:	4314                	lw	a3,0(a4)
     b0a:	efc9                	bnez	a5,ba4 <main+0x208>
     b0c:	4742                	lw	a4,16(sp)
     b0e:	8e99                	sub	a3,a3,a4
     b10:	6705                	lui	a4,0x1
     b12:	38870713          	addi	a4,a4,904 # 1388 <EXTI_Init+0x5e>
     b16:	08d77763          	bgeu	a4,a3,ba4 <main+0x208>
     b1a:	00003537          	lui	a0,0x3
     b1e:	1ec50513          	addi	a0,a0,492 # 31ec <PAIRING_ADDR+0x200>
     b22:	4cc010ef          	jal	ra,1fee <puts>
     b26:	2038                	lbu	a4,2(s0)
     b28:	4785                	li	a5,1
     b2a:	06f71063          	bne	a4,a5,b8a <main+0x1ee>
     b2e:	201e                	lhu	a5,0(s0)
     b30:	cfa9                	beqz	a5,b8a <main+0x1ee>
     b32:	00003537          	lui	a0,0x3
     b36:	21850513          	addi	a0,a0,536 # 3218 <PAIRING_ADDR+0x22c>
     b3a:	4b4010ef          	jal	ra,1fee <puts>
     b3e:	4669                	li	a2,26
     b40:	4581                	li	a1,0
     b42:	02610513          	addi	a0,sp,38
     b46:	e10ff0ef          	jal	ra,156 <memset>
     b4a:	200657b7          	lui	a5,0x20065
     b4e:	5aa78793          	addi	a5,a5,1450 # 200655aa <__global_pointer$+0x64d72>
     b52:	d03e                	sw	a5,32(sp)
     b54:	201e                	lhu	a5,0(s0)
     b56:	02000593          	li	a1,32
     b5a:	1008                	addi	a0,sp,32
     b5c:	02f11223          	sh	a5,36(sp)
     b60:	3b11                	jal	874 <calculate_checksum>
     b62:	02a10fa3          	sb	a0,63(sp)
     b66:	293d                	jal	fa4 <nrf24_power_up_tx>
     b68:	650d                	lui	a0,0x3
     b6a:	fec50513          	addi	a0,a0,-20 # 2fec <PAIRING_ADDR>
     b6e:	2129                	jal	f78 <nrf24_set_tx_addr>
     b70:	47d1                	li	a5,20
     b72:	02000593          	li	a1,32
     b76:	1008                	addi	a0,sp,32
     b78:	c03e                	sw	a5,0(sp)
     b7a:	293d                	jal	fb8 <nrf24_send>
     b7c:	4579                	li	a0,30
     b7e:	5c5000ef          	jal	ra,1942 <Delay_Ms>
     b82:	4782                	lw	a5,0(sp)
     b84:	17fd                	addi	a5,a5,-1
     b86:	f7f5                	bnez	a5,b72 <main+0x1d6>
     b88:	21c1                	jal	1048 <nrf24_power_down>
     b8a:	00041023          	sh	zero,0(s0)
     b8e:	00040123          	sb	zero,2(s0)
     b92:	f6cff0ef          	jal	ra,2fe <flash_save_settings>
     b96:	330d                	jal	8b8 <run_pairing>
     b98:	0ff00793          	li	a5,255
     b9c:	c03e                	sw	a5,0(sp)
     b9e:	ca02                	sw	zero,20(sp)
     ba0:	c402                	sw	zero,8(sp)
     ba2:	4785                	li	a5,1
     ba4:	4529                	li	a0,10
     ba6:	ce3e                	sw	a5,28(sp)
     ba8:	59b000ef          	jal	ra,1942 <Delay_Ms>
     bac:	47f2                	lw	a5,28(sp)
     bae:	bf1d                	j	ae4 <main+0x148>
     bb0:	00003537          	lui	a0,0x3
     bb4:	12850513          	addi	a0,a0,296 # 3128 <PAIRING_ADDR+0x13c>
     bb8:	436010ef          	jal	ra,1fee <puts>
     bbc:	bd41                	j	a4c <main+0xb0>
     bbe:	2038                	lbu	a4,2(s0)
     bc0:	4785                	li	a5,1
     bc2:	1af71d63          	bne	a4,a5,d7c <main+0x3e0>
     bc6:	933ff0ef          	jal	ra,4f8 <read_tank_level>
     bca:	0fe00713          	li	a4,254
     bce:	87aa                	mv	a5,a0
     bd0:	02e50163          	beq	a0,a4,bf2 <main+0x256>
     bd4:	4752                	lw	a4,20(sp)
     bd6:	14071063          	bnez	a4,d16 <main+0x37a>
     bda:	85aa                	mv	a1,a0
     bdc:	c82a                	sw	a0,16(sp)
     bde:	00003537          	lui	a0,0x3
     be2:	25450513          	addi	a0,a0,596 # 3254 <PAIRING_ADDR+0x268>
     be6:	3e4010ef          	jal	ra,1fca <printf>
     bea:	47c2                	lw	a5,16(sp)
     bec:	4705                	li	a4,1
     bee:	ca3a                	sw	a4,20(sp)
     bf0:	84be                	mv	s1,a5
     bf2:	4682                	lw	a3,0(sp)
     bf4:	0ff00713          	li	a4,255
     bf8:	00e68763          	beq	a3,a4,c06 <main+0x26a>
     bfc:	4692                	lw	a3,4(sp)
     bfe:	3bf00713          	li	a4,959
     c02:	18d77863          	bgeu	a4,a3,d92 <main+0x3f6>
     c06:	c83e                	sw	a5,16(sp)
     c08:	3eb1                	jal	764 <read_battery_level>
     c0a:	85aa                	mv	a1,a0
     c0c:	c62a                	sw	a0,12(sp)
     c0e:	00003537          	lui	a0,0x3
     c12:	2a850513          	addi	a0,a0,680 # 32a8 <PAIRING_ADDR+0x2bc>
     c16:	3b4010ef          	jal	ra,1fca <printf>
     c1a:	06400513          	li	a0,100
     c1e:	525000ef          	jal	ra,1942 <Delay_Ms>
     c22:	4682                	lw	a3,0(sp)
     c24:	0ff00713          	li	a4,255
     c28:	47c2                	lw	a5,16(sp)
     c2a:	00e68463          	beq	a3,a4,c32 <main+0x296>
     c2e:	10968163          	beq	a3,s1,d30 <main+0x394>
     c32:	4701                	li	a4,0
     c34:	02000693          	li	a3,32
     c38:	1010                	addi	a2,sp,32
     c3a:	963a                	add	a2,a2,a4
     c3c:	00060023          	sb	zero,0(a2)
     c40:	0705                	addi	a4,a4,1
     c42:	fed71be3          	bne	a4,a3,c38 <main+0x29c>
     c46:	20025737          	lui	a4,0x20025
     c4a:	5aa70713          	addi	a4,a4,1450 # 200255aa <__global_pointer$+0x24d72>
     c4e:	d03a                	sw	a4,32(sp)
     c50:	201a                	lhu	a4,0(s0)
     c52:	46b2                	lw	a3,12(sp)
     c54:	02910323          	sb	s1,38(sp)
     c58:	02e11223          	sh	a4,36(sp)
     c5c:	4732                	lw	a4,12(sp)
     c5e:	02e103a3          	sb	a4,39(sp)
     c62:	473d                	li	a4,15
     c64:	10d77363          	bgeu	a4,a3,d6a <main+0x3ce>
     c68:	02010423          	sb	zero,40(sp)
     c6c:	0fe00713          	li	a4,254
     c70:	00e79863          	bne	a5,a4,c80 <main+0x2e4>
     c74:	02814783          	lbu	a5,40(sp)
     c78:	0027e793          	ori	a5,a5,2
     c7c:	02f10423          	sb	a5,40(sp)
     c80:	47a2                	lw	a5,8(sp)
     c82:	02000593          	li	a1,32
     c86:	1008                	addi	a0,sp,32
     c88:	d63e                	sw	a5,44(sp)
     c8a:	36ed                	jal	874 <calculate_checksum>
     c8c:	4782                	lw	a5,0(sp)
     c8e:	02a10fa3          	sb	a0,63(sp)
     c92:	0e979063          	bne	a5,s1,d72 <main+0x3d6>
     c96:	000035b7          	lui	a1,0x3
     c9a:	05c58593          	addi	a1,a1,92 # 305c <PAIRING_ADDR+0x70>
     c9e:	4732                	lw	a4,12(sp)
     ca0:	4622                	lw	a2,8(sp)
     ca2:	00003537          	lui	a0,0x3
     ca6:	86a6                	mv	a3,s1
     ca8:	2e450513          	addi	a0,a0,740 # 32e4 <PAIRING_ADDR+0x2f8>
     cac:	31e010ef          	jal	ra,1fca <printf>
     cb0:	2271                	jal	e3c <nrf24_init>
     cb2:	2ccd                	jal	fa4 <nrf24_power_up_tx>
     cb4:	650d                	lui	a0,0x3
     cb6:	fec50513          	addi	a0,a0,-20 # 2fec <PAIRING_ADDR>
     cba:	2c7d                	jal	f78 <nrf24_set_tx_addr>
     cbc:	0c800513          	li	a0,200
     cc0:	483000ef          	jal	ra,1942 <Delay_Ms>
     cc4:	47a9                	li	a5,10
     cc6:	02000593          	li	a1,32
     cca:	1008                	addi	a0,sp,32
     ccc:	c03e                	sw	a5,0(sp)
     cce:	24ed                	jal	fb8 <nrf24_send>
     cd0:	4579                	li	a0,30
     cd2:	471000ef          	jal	ra,1942 <Delay_Ms>
     cd6:	4782                	lw	a5,0(sp)
     cd8:	17fd                	addi	a5,a5,-1
     cda:	f7f5                	bnez	a5,cc6 <main+0x32a>
     cdc:	03200513          	li	a0,50
     ce0:	463000ef          	jal	ra,1942 <Delay_Ms>
     ce4:	47a2                	lw	a5,8(sp)
     ce6:	0785                	addi	a5,a5,1
     ce8:	c43e                	sw	a5,8(sp)
     cea:	2eb9                	jal	1048 <nrf24_power_down>
     cec:	400117b7          	lui	a5,0x40011
     cf0:	40078513          	addi	a0,a5,1024 # 40011400 <__global_pointer$+0x20010bc8>
     cf4:	4591                	li	a1,4
     cf6:	01f000ef          	jal	ra,1514 <GPIO_ResetBits>
     cfa:	06400513          	li	a0,100
     cfe:	445000ef          	jal	ra,1942 <Delay_Ms>
     d02:	400117b7          	lui	a5,0x40011
     d06:	4591                	li	a1,4
     d08:	40078513          	addi	a0,a5,1024 # 40011400 <__global_pointer$+0x20010bc8>
     d0c:	005000ef          	jal	ra,1510 <GPIO_SetBits>
     d10:	c026                	sw	s1,0(sp)
     d12:	c202                	sw	zero,4(sp)
     d14:	a01d                	j	d3a <main+0x39e>
     d16:	eca48ee3          	beq	s1,a0,bf2 <main+0x256>
     d1a:	85aa                	mv	a1,a0
     d1c:	c82a                	sw	a0,16(sp)
     d1e:	00003537          	lui	a0,0x3
     d22:	27c50513          	addi	a0,a0,636 # 327c <PAIRING_ADDR+0x290>
     d26:	2a4010ef          	jal	ra,1fca <printf>
     d2a:	47c2                	lw	a5,16(sp)
     d2c:	84be                	mv	s1,a5
     d2e:	b5d1                	j	bf2 <main+0x256>
     d30:	4692                	lw	a3,4(sp)
     d32:	3bf00713          	li	a4,959
     d36:	eed76ee3          	bltu	a4,a3,c32 <main+0x296>
     d3a:	2038                	lbu	a4,2(s0)
     d3c:	4785                	li	a5,1
     d3e:	00f71e63          	bne	a4,a5,d5a <main+0x3be>
     d42:	000037b7          	lui	a5,0x3
     d46:	36478513          	addi	a0,a5,868 # 3364 <PAIRING_ADDR+0x378>
     d4a:	2a4010ef          	jal	ra,1fee <puts>
     d4e:	00003537          	lui	a0,0x3
     d52:	39050513          	addi	a0,a0,912 # 3390 <PAIRING_ADDR+0x3a4>
     d56:	298010ef          	jal	ra,1fee <puts>
     d5a:	879ff0ef          	jal	ra,5d2 <enter_deep_sleep>
     d5e:	4792                	lw	a5,4(sp)
     d60:	0785                	addi	a5,a5,1
     d62:	07c2                	slli	a5,a5,0x10
     d64:	83c1                	srli	a5,a5,0x10
     d66:	c23e                	sw	a5,4(sp)
     d68:	bba5                	j	ae0 <main+0x144>
     d6a:	4705                	li	a4,1
     d6c:	02e10423          	sb	a4,40(sp)
     d70:	bdf5                	j	c6c <main+0x2d0>
     d72:	000035b7          	lui	a1,0x3
     d76:	05458593          	addi	a1,a1,84 # 3054 <PAIRING_ADDR+0x68>
     d7a:	b715                	j	c9e <main+0x302>
     d7c:	00003537          	lui	a0,0x3
     d80:	34050513          	addi	a0,a0,832 # 3340 <PAIRING_ADDR+0x354>
     d84:	26a010ef          	jal	ra,1fee <puts>
     d88:	06400513          	li	a0,100
     d8c:	3b7000ef          	jal	ra,1942 <Delay_Ms>
     d90:	b76d                	j	d3a <main+0x39e>
     d92:	4702                	lw	a4,0(sp)
     d94:	fa9703e3          	beq	a4,s1,d3a <main+0x39e>
     d98:	bd69                	j	c32 <main+0x296>

00000d9a <spi_xfer>:
     d9a:	b12ff2ef          	jal	t0,ac <__riscv_save_0>
     d9e:	842a                	mv	s0,a0
     da0:	4589                	li	a1,2
     da2:	40013537          	lui	a0,0x40013
     da6:	1cf000ef          	jal	ra,1774 <SPI_I2S_GetFlagStatus>
     daa:	d97d                	beqz	a0,da0 <spi_xfer+0x6>
     dac:	85a2                	mv	a1,s0
     dae:	40013537          	lui	a0,0x40013
     db2:	1bb000ef          	jal	ra,176c <SPI_I2S_SendData>
     db6:	4585                	li	a1,1
     db8:	40013537          	lui	a0,0x40013
     dbc:	1b9000ef          	jal	ra,1774 <SPI_I2S_GetFlagStatus>
     dc0:	d97d                	beqz	a0,db6 <spi_xfer+0x1c>
     dc2:	40013537          	lui	a0,0x40013
     dc6:	1ab000ef          	jal	ra,1770 <SPI_I2S_ReceiveData>
     dca:	0ff57513          	andi	a0,a0,255
     dce:	ae8ff06f          	j	b6 <__riscv_restore_0>

00000dd2 <nrf_write_reg>:
     dd2:	adaff2ef          	jal	t0,ac <__riscv_save_0>
     dd6:	842e                	mv	s0,a1
     dd8:	84aa                	mv	s1,a0
     dda:	45a1                	li	a1,8
     ddc:	40011537          	lui	a0,0x40011
     de0:	734000ef          	jal	ra,1514 <GPIO_ResetBits>
     de4:	0204e513          	ori	a0,s1,32
     de8:	3f4d                	jal	d9a <spi_xfer>
     dea:	8522                	mv	a0,s0
     dec:	377d                	jal	d9a <spi_xfer>
     dee:	45a1                	li	a1,8
     df0:	40011537          	lui	a0,0x40011
     df4:	71c000ef          	jal	ra,1510 <GPIO_SetBits>
     df8:	abeff06f          	j	b6 <__riscv_restore_0>

00000dfc <nrf_write_buf>:
     dfc:	ab0ff2ef          	jal	t0,ac <__riscv_save_0>
     e00:	1171                	addi	sp,sp,-4
     e02:	84aa                	mv	s1,a0
     e04:	842e                	mv	s0,a1
     e06:	40011537          	lui	a0,0x40011
     e0a:	45a1                	li	a1,8
     e0c:	c032                	sw	a2,0(sp)
     e0e:	706000ef          	jal	ra,1514 <GPIO_ResetBits>
     e12:	0204e513          	ori	a0,s1,32
     e16:	3751                	jal	d9a <spi_xfer>
     e18:	4602                	lw	a2,0(sp)
     e1a:	00c404b3          	add	s1,s0,a2
     e1e:	00941a63          	bne	s0,s1,e32 <nrf_write_buf+0x36>
     e22:	45a1                	li	a1,8
     e24:	40011537          	lui	a0,0x40011
     e28:	6e8000ef          	jal	ra,1510 <GPIO_SetBits>
     e2c:	0111                	addi	sp,sp,4
     e2e:	a88ff06f          	j	b6 <__riscv_restore_0>
     e32:	0405                	addi	s0,s0,1
     e34:	fff44503          	lbu	a0,-1(s0)
     e38:	378d                	jal	d9a <spi_xfer>
     e3a:	b7d5                	j	e1e <nrf_write_buf+0x22>

00000e3c <nrf24_init>:
     e3c:	a70ff2ef          	jal	t0,ac <__riscv_save_0>
     e40:	6505                	lui	a0,0x1
     e42:	1101                	addi	sp,sp,-32
     e44:	4585                	li	a1,1
     e46:	03050513          	addi	a0,a0,48 # 1030 <nrf24_send+0x78>
     e4a:	c002                	sw	zero,0(sp)
     e4c:	c202                	sw	zero,4(sp)
     e4e:	c402                	sw	zero,8(sp)
     e50:	c602                	sw	zero,12(sp)
     e52:	c802                	sw	zero,16(sp)
     e54:	ca02                	sw	zero,20(sp)
     e56:	cc02                	sw	zero,24(sp)
     e58:	00011e23          	sh	zero,28(sp)
     e5c:	04b000ef          	jal	ra,16a6 <RCC_APB2PeriphClockCmd>
     e60:	06000793          	li	a5,96
     e64:	807c                	sh	a5,0(sp)
     e66:	44e1                	li	s1,24
     e68:	478d                	li	a5,3
     e6a:	858a                	mv	a1,sp
     e6c:	40011537          	lui	a0,0x40011
     e70:	c426                	sw	s1,8(sp)
     e72:	c23e                	sw	a5,4(sp)
     e74:	2d19                	jal	148a <GPIO_Init>
     e76:	08000793          	li	a5,128
     e7a:	807c                	sh	a5,0(sp)
     e7c:	858a                	mv	a1,sp
     e7e:	4791                	li	a5,4
     e80:	40011537          	lui	a0,0x40011
     e84:	c43e                	sw	a5,8(sp)
     e86:	2511                	jal	148a <GPIO_Init>
     e88:	47a1                	li	a5,8
     e8a:	4441                	li	s0,16
     e8c:	858a                	mv	a1,sp
     e8e:	40011537          	lui	a0,0x40011
     e92:	807c                	sh	a5,0(sp)
     e94:	c422                	sw	s0,8(sp)
     e96:	2bd5                	jal	148a <GPIO_Init>
     e98:	45a1                	li	a1,8
     e9a:	40011537          	lui	a0,0x40011
     e9e:	672000ef          	jal	ra,1510 <GPIO_SetBits>
     ea2:	8060                	sh	s0,0(sp)
     ea4:	c422                	sw	s0,8(sp)
     ea6:	40011437          	lui	s0,0x40011
     eaa:	858a                	mv	a1,sp
     eac:	40040513          	addi	a0,s0,1024 # 40011400 <__global_pointer$+0x20010bc8>
     eb0:	2be9                	jal	148a <GPIO_Init>
     eb2:	40040513          	addi	a0,s0,1024
     eb6:	45c1                	li	a1,16
     eb8:	2db1                	jal	1514 <GPIO_ResetBits>
     eba:	010407b7          	lui	a5,0x1040
     ebe:	c63e                	sw	a5,12(sp)
     ec0:	020007b7          	lui	a5,0x2000
     ec4:	ca3e                	sw	a5,20(sp)
     ec6:	006c                	addi	a1,sp,12
     ec8:	479d                	li	a5,7
     eca:	40013537          	lui	a0,0x40013
     ece:	86fc                	sh	a5,28(sp)
     ed0:	cc26                	sw	s1,24(sp)
     ed2:	c802                	sw	zero,16(sp)
     ed4:	04d000ef          	jal	ra,1720 <SPI_Init>
     ed8:	4585                	li	a1,1
     eda:	40013537          	lui	a0,0x40013
     ede:	075000ef          	jal	ra,1752 <SPI_Cmd>
     ee2:	00003537          	lui	a0,0x3
     ee6:	4c450513          	addi	a0,a0,1220 # 34c4 <PAIRING_ADDR+0x4d8>
     eea:	104010ef          	jal	ra,1fee <puts>
     eee:	09600513          	li	a0,150
     ef2:	251000ef          	jal	ra,1942 <Delay_Ms>
     ef6:	4581                	li	a1,0
     ef8:	4501                	li	a0,0
     efa:	3de1                	jal	dd2 <nrf_write_reg>
     efc:	4529                	li	a0,10
     efe:	245000ef          	jal	ra,1942 <Delay_Ms>
     f02:	45b9                	li	a1,14
     f04:	4501                	li	a0,0
     f06:	35f1                	jal	dd2 <nrf_write_reg>
     f08:	4581                	li	a1,0
     f0a:	4505                	li	a0,1
     f0c:	35d9                	jal	dd2 <nrf_write_reg>
     f0e:	4585                	li	a1,1
     f10:	450d                	li	a0,3
     f12:	35c1                	jal	dd2 <nrf_write_reg>
     f14:	4581                	li	a1,0
     f16:	4511                	li	a0,4
     f18:	3d6d                	jal	dd2 <nrf_write_reg>
     f1a:	06300593          	li	a1,99
     f1e:	4515                	li	a0,5
     f20:	3d4d                	jal	dd2 <nrf_write_reg>
     f22:	02400593          	li	a1,36
     f26:	4519                	li	a0,6
     f28:	356d                	jal	dd2 <nrf_write_reg>
     f2a:	02000593          	li	a1,32
     f2e:	4545                	li	a0,17
     f30:	354d                	jal	dd2 <nrf_write_reg>
     f32:	07000593          	li	a1,112
     f36:	451d                	li	a0,7
     f38:	3d69                	jal	dd2 <nrf_write_reg>
     f3a:	45a1                	li	a1,8
     f3c:	40011537          	lui	a0,0x40011
     f40:	2bd1                	jal	1514 <GPIO_ResetBits>
     f42:	0e100513          	li	a0,225
     f46:	3d91                	jal	d9a <spi_xfer>
     f48:	45a1                	li	a1,8
     f4a:	40011537          	lui	a0,0x40011
     f4e:	23c9                	jal	1510 <GPIO_SetBits>
     f50:	45a1                	li	a1,8
     f52:	40011537          	lui	a0,0x40011
     f56:	2b7d                	jal	1514 <GPIO_ResetBits>
     f58:	0e200513          	li	a0,226
     f5c:	3d3d                	jal	d9a <spi_xfer>
     f5e:	45a1                	li	a1,8
     f60:	40011537          	lui	a0,0x40011
     f64:	2375                	jal	1510 <GPIO_SetBits>
     f66:	00003537          	lui	a0,0x3
     f6a:	50850513          	addi	a0,a0,1288 # 3508 <PAIRING_ADDR+0x51c>
     f6e:	080010ef          	jal	ra,1fee <puts>
     f72:	6105                	addi	sp,sp,32
     f74:	942ff06f          	j	b6 <__riscv_restore_0>

00000f78 <nrf24_set_tx_addr>:
     f78:	934ff2ef          	jal	t0,ac <__riscv_save_0>
     f7c:	2134                	lbu	a3,2(a0)
     f7e:	3110                	lbu	a2,1(a0)
     f80:	210c                	lbu	a1,0(a0)
     f82:	842a                	mv	s0,a0
     f84:	00003537          	lui	a0,0x3
     f88:	54850513          	addi	a0,a0,1352 # 3548 <PAIRING_ADDR+0x55c>
     f8c:	03e010ef          	jal	ra,1fca <printf>
     f90:	85a2                	mv	a1,s0
     f92:	460d                	li	a2,3
     f94:	4541                	li	a0,16
     f96:	359d                	jal	dfc <nrf_write_buf>
     f98:	460d                	li	a2,3
     f9a:	85a2                	mv	a1,s0
     f9c:	4529                	li	a0,10
     f9e:	3db9                	jal	dfc <nrf_write_buf>
     fa0:	916ff06f          	j	b6 <__riscv_restore_0>

00000fa4 <nrf24_power_up_tx>:
     fa4:	908ff2ef          	jal	t0,ac <__riscv_save_0>
     fa8:	45b9                	li	a1,14
     faa:	4501                	li	a0,0
     fac:	351d                	jal	dd2 <nrf_write_reg>
     fae:	4515                	li	a0,5
     fb0:	193000ef          	jal	ra,1942 <Delay_Ms>
     fb4:	902ff06f          	j	b6 <__riscv_restore_0>

00000fb8 <nrf24_send>:
     fb8:	8f4ff2ef          	jal	t0,ac <__riscv_save_0>
     fbc:	1171                	addi	sp,sp,-4
     fbe:	842a                	mv	s0,a0
     fc0:	84ae                	mv	s1,a1
     fc2:	451d                	li	a0,7
     fc4:	07000593          	li	a1,112
     fc8:	3529                	jal	dd2 <nrf_write_reg>
     fca:	45a1                	li	a1,8
     fcc:	40011537          	lui	a0,0x40011
     fd0:	2391                	jal	1514 <GPIO_ResetBits>
     fd2:	0e100513          	li	a0,225
     fd6:	33d1                	jal	d9a <spi_xfer>
     fd8:	45a1                	li	a1,8
     fda:	40011537          	lui	a0,0x40011
     fde:	2b0d                	jal	1510 <GPIO_SetBits>
     fe0:	45a1                	li	a1,8
     fe2:	40011537          	lui	a0,0x40011
     fe6:	233d                	jal	1514 <GPIO_ResetBits>
     fe8:	0a000513          	li	a0,160
     fec:	337d                	jal	d9a <spi_xfer>
     fee:	4781                	li	a5,0
     ff0:	0ff7f713          	andi	a4,a5,255
     ff4:	4501                	li	a0,0
     ff6:	00977563          	bgeu	a4,s1,1000 <nrf24_send+0x48>
     ffa:	00f40733          	add	a4,s0,a5
     ffe:	2308                	lbu	a0,0(a4)
    1000:	c03e                	sw	a5,0(sp)
    1002:	3b61                	jal	d9a <spi_xfer>
    1004:	4782                	lw	a5,0(sp)
    1006:	02000713          	li	a4,32
    100a:	0785                	addi	a5,a5,1
    100c:	fee792e3          	bne	a5,a4,ff0 <nrf24_send+0x38>
    1010:	45a1                	li	a1,8
    1012:	40011537          	lui	a0,0x40011
    1016:	29ed                	jal	1510 <GPIO_SetBits>
    1018:	40011437          	lui	s0,0x40011
    101c:	45c1                	li	a1,16
    101e:	40040513          	addi	a0,s0,1024 # 40011400 <__global_pointer$+0x20010bc8>
    1022:	21fd                	jal	1510 <GPIO_SetBits>
    1024:	4515                	li	a0,5
    1026:	11d000ef          	jal	ra,1942 <Delay_Ms>
    102a:	45c1                	li	a1,16
    102c:	40040513          	addi	a0,s0,1024
    1030:	21d5                	jal	1514 <GPIO_ResetBits>
    1032:	4509                	li	a0,2
    1034:	10f000ef          	jal	ra,1942 <Delay_Ms>
    1038:	03000593          	li	a1,48
    103c:	451d                	li	a0,7
    103e:	3b51                	jal	dd2 <nrf_write_reg>
    1040:	4505                	li	a0,1
    1042:	0111                	addi	sp,sp,4
    1044:	872ff06f          	j	b6 <__riscv_restore_0>

00001048 <nrf24_power_down>:
    1048:	864ff2ef          	jal	t0,ac <__riscv_save_0>
    104c:	00003537          	lui	a0,0x3
    1050:	52c50513          	addi	a0,a0,1324 # 352c <PAIRING_ADDR+0x540>
    1054:	79b000ef          	jal	ra,1fee <puts>
    1058:	40011537          	lui	a0,0x40011
    105c:	45c1                	li	a1,16
    105e:	40050513          	addi	a0,a0,1024 # 40011400 <__global_pointer$+0x20010bc8>
    1062:	294d                	jal	1514 <GPIO_ResetBits>
    1064:	45a1                	li	a1,8
    1066:	4501                	li	a0,0
    1068:	33ad                	jal	dd2 <nrf_write_reg>
    106a:	84cff06f          	j	b6 <__riscv_restore_0>

0000106e <SystemInit>:
    106e:	400217b7          	lui	a5,0x40021
    1072:	4398                	lw	a4,0(a5)
    1074:	f8ff06b7          	lui	a3,0xf8ff0
    1078:	00176713          	ori	a4,a4,1
    107c:	c398                	sw	a4,0(a5)
    107e:	43d8                	lw	a4,4(a5)
    1080:	8f75                	and	a4,a4,a3
    1082:	c3d8                	sw	a4,4(a5)
    1084:	4398                	lw	a4,0(a5)
    1086:	fef706b7          	lui	a3,0xfef70
    108a:	16fd                	addi	a3,a3,-1
    108c:	8f75                	and	a4,a4,a3
    108e:	c398                	sw	a4,0(a5)
    1090:	4398                	lw	a4,0(a5)
    1092:	fffc06b7          	lui	a3,0xfffc0
    1096:	16fd                	addi	a3,a3,-1
    1098:	8f75                	and	a4,a4,a3
    109a:	c398                	sw	a4,0(a5)
    109c:	43d8                	lw	a4,4(a5)
    109e:	ff4006b7          	lui	a3,0xff400
    10a2:	16fd                	addi	a3,a3,-1
    10a4:	8f75                	and	a4,a4,a3
    10a6:	c3d8                	sw	a4,4(a5)
    10a8:	009f0737          	lui	a4,0x9f0
    10ac:	c798                	sw	a4,8(a5)
    10ae:	8082                	ret

000010b0 <SystemCoreClockUpdate>:
    10b0:	400216b7          	lui	a3,0x40021
    10b4:	42d8                	lw	a4,4(a3)
    10b6:	200007b7          	lui	a5,0x20000
    10ba:	4611                	li	a2,4
    10bc:	8b31                	andi	a4,a4,12
    10be:	00c78793          	addi	a5,a5,12 # 2000000c <_highcode_vma_end>
    10c2:	00c70563          	beq	a4,a2,10cc <SystemCoreClockUpdate+0x1c>
    10c6:	4621                	li	a2,8
    10c8:	00c70863          	beq	a4,a2,10d8 <SystemCoreClockUpdate+0x28>
    10cc:	016e3737          	lui	a4,0x16e3
    10d0:	60070713          	addi	a4,a4,1536 # 16e3600 <_data_lma+0x16dfeb8>
    10d4:	c398                	sw	a4,0(a5)
    10d6:	8082                	ret
    10d8:	42d8                	lw	a4,4(a3)
    10da:	00f71693          	slli	a3,a4,0xf
    10de:	fe06d7e3          	bgez	a3,10cc <SystemCoreClockUpdate+0x1c>
    10e2:	02dc7737          	lui	a4,0x2dc7
    10e6:	c0070713          	addi	a4,a4,-1024 # 2dc6c00 <_data_lma+0x2dc34b8>
    10ea:	b7ed                	j	10d4 <SystemCoreClockUpdate+0x24>

000010ec <ADC1_IRQHandler>:
    10ec:	a001                	j	10ec <ADC1_IRQHandler>

000010ee <handle_reset>:
    10ee:	1ffff197          	auipc	gp,0x1ffff
    10f2:	74a18193          	addi	gp,gp,1866 # 20000838 <__global_pointer$>
    10f6:	fc818113          	addi	sp,gp,-56 # 20000800 <_eusrstack>
    10fa:	0a000513          	li	a0,160
    10fe:	1ffff597          	auipc	a1,0x1ffff
    1102:	f0258593          	addi	a1,a1,-254 # 20000000 <WFE>
    1106:	1ffff617          	auipc	a2,0x1ffff
    110a:	f0660613          	addi	a2,a2,-250 # 2000000c <_highcode_vma_end>
    110e:	00c5fa63          	bgeu	a1,a2,1122 <handle_reset+0x34>
    1112:	00052283          	lw	t0,0(a0)
    1116:	0055a023          	sw	t0,0(a1)
    111a:	0511                	addi	a0,a0,4
    111c:	0591                	addi	a1,a1,4
    111e:	fec5eae3          	bltu	a1,a2,1112 <handle_reset+0x24>
    1122:	00002517          	auipc	a0,0x2
    1126:	62650513          	addi	a0,a0,1574 # 3748 <_data_lma>
    112a:	1ffff597          	auipc	a1,0x1ffff
    112e:	ee258593          	addi	a1,a1,-286 # 2000000c <_highcode_vma_end>
    1132:	1ffff617          	auipc	a2,0x1ffff
    1136:	f0660613          	addi	a2,a2,-250 # 20000038 <_edata>
    113a:	00c5fa63          	bgeu	a1,a2,114e <handle_reset+0x60>
    113e:	00052283          	lw	t0,0(a0)
    1142:	0055a023          	sw	t0,0(a1)
    1146:	0511                	addi	a0,a0,4
    1148:	0591                	addi	a1,a1,4
    114a:	fec5eae3          	bltu	a1,a2,113e <handle_reset+0x50>
    114e:	1ffff517          	auipc	a0,0x1ffff
    1152:	eea50513          	addi	a0,a0,-278 # 20000038 <_edata>
    1156:	81018593          	addi	a1,gp,-2032 # 20000048 <_ebss>
    115a:	00b57763          	bgeu	a0,a1,1168 <handle_reset+0x7a>
    115e:	00052023          	sw	zero,0(a0)
    1162:	0511                	addi	a0,a0,4
    1164:	feb56de3          	bltu	a0,a1,115e <handle_reset+0x70>
    1168:	000022b7          	lui	t0,0x2
    116c:	88028293          	addi	t0,t0,-1920 # 1880 <USART_Init+0x66>
    1170:	30029073          	csrw	mstatus,t0
    1174:	428d                	li	t0,3
    1176:	80429073          	csrw	0x804,t0
    117a:	fffff297          	auipc	t0,0xfffff
    117e:	e8628293          	addi	t0,t0,-378 # 0 <_sinit>
    1182:	0032e293          	ori	t0,t0,3
    1186:	30529073          	csrw	mtvec,t0
    118a:	ee5ff0ef          	jal	ra,106e <SystemInit>
    118e:	00000297          	auipc	t0,0x0
    1192:	80e28293          	addi	t0,t0,-2034 # 99c <main>
    1196:	34129073          	csrw	mepc,t0
    119a:	30200073          	mret

0000119e <ADC_DeInit>:
    119e:	400127b7          	lui	a5,0x40012
    11a2:	40078793          	addi	a5,a5,1024 # 40012400 <__global_pointer$+0x20011bc8>
    11a6:	00f51e63          	bne	a0,a5,11c2 <ADC_DeInit+0x24>
    11aa:	f03fe2ef          	jal	t0,ac <__riscv_save_0>
    11ae:	4585                	li	a1,1
    11b0:	20000513          	li	a0,512
    11b4:	233d                	jal	16e2 <RCC_APB2PeriphResetCmd>
    11b6:	4581                	li	a1,0
    11b8:	20000513          	li	a0,512
    11bc:	231d                	jal	16e2 <RCC_APB2PeriphResetCmd>
    11be:	ef9fe06f          	j	b6 <__riscv_restore_0>
    11c2:	8082                	ret

000011c4 <ADC_Init>:
    11c4:	415c                	lw	a5,4(a0)
    11c6:	fff10737          	lui	a4,0xfff10
    11ca:	eff70713          	addi	a4,a4,-257 # fff0feff <__global_pointer$+0xdff0f6c7>
    11ce:	8f7d                	and	a4,a4,a5
    11d0:	41dc                	lw	a5,4(a1)
    11d2:	4194                	lw	a3,0(a1)
    11d4:	07a2                	slli	a5,a5,0x8
    11d6:	8fd5                	or	a5,a5,a3
    11d8:	8fd9                	or	a5,a5,a4
    11da:	c15c                	sw	a5,4(a0)
    11dc:	451c                	lw	a5,8(a0)
    11de:	fff1f737          	lui	a4,0xfff1f
    11e2:	7fd70713          	addi	a4,a4,2045 # fff1f7fd <__global_pointer$+0xdff1efc5>
    11e6:	45d4                	lw	a3,12(a1)
    11e8:	8f7d                	and	a4,a4,a5
    11ea:	499c                	lw	a5,16(a1)
    11ec:	8fd5                	or	a5,a5,a3
    11ee:	4594                	lw	a3,8(a1)
    11f0:	0686                	slli	a3,a3,0x1
    11f2:	8fd5                	or	a5,a5,a3
    11f4:	8fd9                	or	a5,a5,a4
    11f6:	c51c                	sw	a5,8(a0)
    11f8:	555c                	lw	a5,44(a0)
    11fa:	ff100737          	lui	a4,0xff100
    11fe:	177d                	addi	a4,a4,-1
    1200:	8f7d                	and	a4,a4,a5
    1202:	29dc                	lbu	a5,20(a1)
    1204:	17fd                	addi	a5,a5,-1
    1206:	0ff7f793          	andi	a5,a5,255
    120a:	07d2                	slli	a5,a5,0x14
    120c:	8fd9                	or	a5,a5,a4
    120e:	d55c                	sw	a5,44(a0)
    1210:	8082                	ret

00001212 <ADC_Cmd>:
    1212:	451c                	lw	a5,8(a0)
    1214:	c589                	beqz	a1,121e <ADC_Cmd+0xc>
    1216:	0017e793          	ori	a5,a5,1
    121a:	c51c                	sw	a5,8(a0)
    121c:	8082                	ret
    121e:	9bf9                	andi	a5,a5,-2
    1220:	bfed                	j	121a <ADC_Cmd+0x8>

00001222 <ADC_ResetCalibration>:
    1222:	451c                	lw	a5,8(a0)
    1224:	0087e793          	ori	a5,a5,8
    1228:	c51c                	sw	a5,8(a0)
    122a:	8082                	ret

0000122c <ADC_GetResetCalibrationStatus>:
    122c:	4508                	lw	a0,8(a0)
    122e:	810d                	srli	a0,a0,0x3
    1230:	8905                	andi	a0,a0,1
    1232:	8082                	ret

00001234 <ADC_StartCalibration>:
    1234:	451c                	lw	a5,8(a0)
    1236:	0047e793          	ori	a5,a5,4
    123a:	c51c                	sw	a5,8(a0)
    123c:	8082                	ret

0000123e <ADC_GetCalibrationStatus>:
    123e:	4508                	lw	a0,8(a0)
    1240:	8109                	srli	a0,a0,0x2
    1242:	8905                	andi	a0,a0,1
    1244:	8082                	ret

00001246 <ADC_SoftwareStartConvCmd>:
    1246:	451c                	lw	a5,8(a0)
    1248:	c591                	beqz	a1,1254 <ADC_SoftwareStartConvCmd+0xe>
    124a:	00500737          	lui	a4,0x500
    124e:	8fd9                	or	a5,a5,a4
    1250:	c51c                	sw	a5,8(a0)
    1252:	8082                	ret
    1254:	ffb00737          	lui	a4,0xffb00
    1258:	177d                	addi	a4,a4,-1
    125a:	8ff9                	and	a5,a5,a4
    125c:	bfd5                	j	1250 <ADC_SoftwareStartConvCmd+0xa>

0000125e <ADC_RegularChannelConfig>:
    125e:	47a5                	li	a5,9
    1260:	04b7f863          	bgeu	a5,a1,12b0 <ADC_RegularChannelConfig+0x52>
    1264:	ff658713          	addi	a4,a1,-10
    1268:	00171793          	slli	a5,a4,0x1
    126c:	00c52283          	lw	t0,12(a0)
    1270:	97ba                	add	a5,a5,a4
    1272:	431d                	li	t1,7
    1274:	00f31333          	sll	t1,t1,a5
    1278:	fff34313          	not	t1,t1
    127c:	00537333          	and	t1,t1,t0
    1280:	00f697b3          	sll	a5,a3,a5
    1284:	0067e7b3          	or	a5,a5,t1
    1288:	c55c                	sw	a5,12(a0)
    128a:	4799                	li	a5,6
    128c:	04c7e363          	bltu	a5,a2,12d2 <ADC_RegularChannelConfig+0x74>
    1290:	167d                	addi	a2,a2,-1
    1292:	00261793          	slli	a5,a2,0x2
    1296:	963e                	add	a2,a2,a5
    1298:	5958                	lw	a4,52(a0)
    129a:	47fd                	li	a5,31
    129c:	00c797b3          	sll	a5,a5,a2
    12a0:	fff7c793          	not	a5,a5
    12a4:	8ff9                	and	a5,a5,a4
    12a6:	00c595b3          	sll	a1,a1,a2
    12aa:	8ddd                	or	a1,a1,a5
    12ac:	d94c                	sw	a1,52(a0)
    12ae:	8082                	ret
    12b0:	00159793          	slli	a5,a1,0x1
    12b4:	01052303          	lw	t1,16(a0)
    12b8:	97ae                	add	a5,a5,a1
    12ba:	471d                	li	a4,7
    12bc:	00f71733          	sll	a4,a4,a5
    12c0:	fff74713          	not	a4,a4
    12c4:	00677733          	and	a4,a4,t1
    12c8:	00f697b3          	sll	a5,a3,a5
    12cc:	8f5d                	or	a4,a4,a5
    12ce:	c918                	sw	a4,16(a0)
    12d0:	bf6d                	j	128a <ADC_RegularChannelConfig+0x2c>
    12d2:	47b1                	li	a5,12
    12d4:	02c7e263          	bltu	a5,a2,12f8 <ADC_RegularChannelConfig+0x9a>
    12d8:	1665                	addi	a2,a2,-7
    12da:	00261793          	slli	a5,a2,0x2
    12de:	963e                	add	a2,a2,a5
    12e0:	5918                	lw	a4,48(a0)
    12e2:	47fd                	li	a5,31
    12e4:	00c797b3          	sll	a5,a5,a2
    12e8:	fff7c793          	not	a5,a5
    12ec:	8ff9                	and	a5,a5,a4
    12ee:	00c595b3          	sll	a1,a1,a2
    12f2:	8ddd                	or	a1,a1,a5
    12f4:	d90c                	sw	a1,48(a0)
    12f6:	8082                	ret
    12f8:	164d                	addi	a2,a2,-13
    12fa:	00261713          	slli	a4,a2,0x2
    12fe:	5554                	lw	a3,44(a0)
    1300:	963a                	add	a2,a2,a4
    1302:	47fd                	li	a5,31
    1304:	00c797b3          	sll	a5,a5,a2
    1308:	fff7c793          	not	a5,a5
    130c:	8ff5                	and	a5,a5,a3
    130e:	00c595b3          	sll	a1,a1,a2
    1312:	8ddd                	or	a1,a1,a5
    1314:	d54c                	sw	a1,44(a0)
    1316:	8082                	ret

00001318 <ADC_GetConversionValue>:
    1318:	4568                	lw	a0,76(a0)
    131a:	0542                	slli	a0,a0,0x10
    131c:	8141                	srli	a0,a0,0x10
    131e:	8082                	ret

00001320 <ADC_GetFlagStatus>:
    1320:	4108                	lw	a0,0(a0)
    1322:	8d6d                	and	a0,a0,a1
    1324:	00a03533          	snez	a0,a0
    1328:	8082                	ret

0000132a <EXTI_Init>:
    132a:	4158                	lw	a4,4(a0)
    132c:	00052303          	lw	t1,0(a0)
    1330:	454c                	lw	a1,12(a0)
    1332:	40010637          	lui	a2,0x40010
    1336:	40060793          	addi	a5,a2,1024 # 40010400 <__global_pointer$+0x2000fbc8>
    133a:	973e                	add	a4,a4,a5
    133c:	fff34693          	not	a3,t1
    1340:	c5b1                	beqz	a1,138c <EXTI_Init+0x62>
    1342:	40062583          	lw	a1,1024(a2)
    1346:	8df5                	and	a1,a1,a3
    1348:	40b62023          	sw	a1,1024(a2)
    134c:	43d0                	lw	a2,4(a5)
    134e:	8ef1                	and	a3,a3,a2
    1350:	c3d4                	sw	a3,4(a5)
    1352:	4314                	lw	a3,0(a4)
    1354:	0066e6b3          	or	a3,a3,t1
    1358:	c314                	sw	a3,0(a4)
    135a:	4118                	lw	a4,0(a0)
    135c:	4790                	lw	a2,8(a5)
    135e:	fff74693          	not	a3,a4
    1362:	8e75                	and	a2,a2,a3
    1364:	c790                	sw	a2,8(a5)
    1366:	47d0                	lw	a2,12(a5)
    1368:	8ef1                	and	a3,a3,a2
    136a:	c7d4                	sw	a3,12(a5)
    136c:	4514                	lw	a3,8(a0)
    136e:	4641                	li	a2,16
    1370:	00c69963          	bne	a3,a2,1382 <EXTI_Init+0x58>
    1374:	4794                	lw	a3,8(a5)
    1376:	8ed9                	or	a3,a3,a4
    1378:	c794                	sw	a3,8(a5)
    137a:	47d4                	lw	a3,12(a5)
    137c:	8f55                	or	a4,a4,a3
    137e:	c7d8                	sw	a4,12(a5)
    1380:	8082                	ret
    1382:	97b6                	add	a5,a5,a3
    1384:	4394                	lw	a3,0(a5)
    1386:	8f55                	or	a4,a4,a3
    1388:	c398                	sw	a4,0(a5)
    138a:	8082                	ret
    138c:	431c                	lw	a5,0(a4)
    138e:	8ff5                	and	a5,a5,a3
    1390:	c31c                	sw	a5,0(a4)
    1392:	8082                	ret

00001394 <EXTI_ClearITPendingBit>:
    1394:	400107b7          	lui	a5,0x40010
    1398:	40a7aa23          	sw	a0,1044(a5) # 40010414 <__global_pointer$+0x2000fbdc>
    139c:	8082                	ret

0000139e <FLASH_Unlock>:
    139e:	456707b7          	lui	a5,0x45670
    13a2:	40022737          	lui	a4,0x40022
    13a6:	12378793          	addi	a5,a5,291 # 45670123 <__global_pointer$+0x2566f8eb>
    13aa:	c35c                	sw	a5,4(a4)
    13ac:	cdef97b7          	lui	a5,0xcdef9
    13b0:	9ab78793          	addi	a5,a5,-1621 # cdef89ab <__global_pointer$+0xadef8173>
    13b4:	c35c                	sw	a5,4(a4)
    13b6:	8082                	ret

000013b8 <FLASH_Lock>:
    13b8:	40022737          	lui	a4,0x40022
    13bc:	4b1c                	lw	a5,16(a4)
    13be:	0807e793          	ori	a5,a5,128
    13c2:	cb1c                	sw	a5,16(a4)
    13c4:	8082                	ret

000013c6 <FLASH_GetBank1Status>:
    13c6:	40022737          	lui	a4,0x40022
    13ca:	475c                	lw	a5,12(a4)
    13cc:	4505                	li	a0,1
    13ce:	8b85                	andi	a5,a5,1
    13d0:	e791                	bnez	a5,13dc <FLASH_GetBank1Status+0x16>
    13d2:	4748                	lw	a0,12(a4)
    13d4:	8941                	andi	a0,a0,16
    13d6:	00153513          	seqz	a0,a0
    13da:	050d                	addi	a0,a0,3
    13dc:	8082                	ret

000013de <FLASH_WaitForLastOperation>:
    13de:	ccffe2ef          	jal	t0,ac <__riscv_save_0>
    13e2:	842a                	mv	s0,a0
    13e4:	37cd                	jal	13c6 <FLASH_GetBank1Status>
    13e6:	4785                	li	a5,1
    13e8:	00f51863          	bne	a0,a5,13f8 <FLASH_WaitForLastOperation+0x1a>
    13ec:	e019                	bnez	s0,13f2 <FLASH_WaitForLastOperation+0x14>
    13ee:	4515                	li	a0,5
    13f0:	a029                	j	13fa <FLASH_WaitForLastOperation+0x1c>
    13f2:	3fd1                	jal	13c6 <FLASH_GetBank1Status>
    13f4:	147d                	addi	s0,s0,-1
    13f6:	bfc5                	j	13e6 <FLASH_WaitForLastOperation+0x8>
    13f8:	d87d                	beqz	s0,13ee <FLASH_WaitForLastOperation+0x10>
    13fa:	cbdfe06f          	j	b6 <__riscv_restore_0>

000013fe <FLASH_ErasePage>:
    13fe:	caffe2ef          	jal	t0,ac <__riscv_save_0>
    1402:	84aa                	mv	s1,a0
    1404:	000b0537          	lui	a0,0xb0
    1408:	3fd9                	jal	13de <FLASH_WaitForLastOperation>
    140a:	4791                	li	a5,4
    140c:	02f51363          	bne	a0,a5,1432 <FLASH_ErasePage+0x34>
    1410:	40022437          	lui	s0,0x40022
    1414:	481c                	lw	a5,16(s0)
    1416:	000b0537          	lui	a0,0xb0
    141a:	0027e793          	ori	a5,a5,2
    141e:	c81c                	sw	a5,16(s0)
    1420:	c844                	sw	s1,20(s0)
    1422:	481c                	lw	a5,16(s0)
    1424:	0407e793          	ori	a5,a5,64
    1428:	c81c                	sw	a5,16(s0)
    142a:	3f55                	jal	13de <FLASH_WaitForLastOperation>
    142c:	481c                	lw	a5,16(s0)
    142e:	9bf5                	andi	a5,a5,-3
    1430:	c81c                	sw	a5,16(s0)
    1432:	c85fe06f          	j	b6 <__riscv_restore_0>

00001436 <FLASH_ProgramWord>:
    1436:	c77fe2ef          	jal	t0,ac <__riscv_save_0>
    143a:	1161                	addi	sp,sp,-8
    143c:	84aa                	mv	s1,a0
    143e:	6509                	lui	a0,0x2
    1440:	c02e                	sw	a1,0(sp)
    1442:	c202                	sw	zero,4(sp)
    1444:	3f69                	jal	13de <FLASH_WaitForLastOperation>
    1446:	4711                	li	a4,4
    1448:	4582                	lw	a1,0(sp)
    144a:	02e51d63          	bne	a0,a4,1484 <FLASH_ProgramWord+0x4e>
    144e:	40022437          	lui	s0,0x40022
    1452:	481c                	lw	a5,16(s0)
    1454:	6509                	lui	a0,0x2
    1456:	0017e793          	ori	a5,a5,1
    145a:	c81c                	sw	a5,16(s0)
    145c:	01059793          	slli	a5,a1,0x10
    1460:	83c1                	srli	a5,a5,0x10
    1462:	a09e                	sh	a5,0(s1)
    1464:	c02e                	sw	a1,0(sp)
    1466:	3fa5                	jal	13de <FLASH_WaitForLastOperation>
    1468:	4711                	li	a4,4
    146a:	4582                	lw	a1,0(sp)
    146c:	00e51963          	bne	a0,a4,147e <FLASH_ProgramWord+0x48>
    1470:	0489                	addi	s1,s1,2
    1472:	c226                	sw	s1,4(sp)
    1474:	4792                	lw	a5,4(sp)
    1476:	81c1                	srli	a1,a1,0x10
    1478:	6509                	lui	a0,0x2
    147a:	a38e                	sh	a1,0(a5)
    147c:	378d                	jal	13de <FLASH_WaitForLastOperation>
    147e:	481c                	lw	a5,16(s0)
    1480:	9bf9                	andi	a5,a5,-2
    1482:	c81c                	sw	a5,16(s0)
    1484:	0121                	addi	sp,sp,8
    1486:	c31fe06f          	j	b6 <__riscv_restore_0>

0000148a <GPIO_Init>:
    148a:	4594                	lw	a3,8(a1)
    148c:	0106f793          	andi	a5,a3,16
    1490:	00f6f293          	andi	t0,a3,15
    1494:	c781                	beqz	a5,149c <GPIO_Init+0x12>
    1496:	41dc                	lw	a5,4(a1)
    1498:	00f2e2b3          	or	t0,t0,a5
    149c:	0005d383          	lhu	t2,0(a1)
    14a0:	0ff3f793          	andi	a5,t2,255
    14a4:	c3a5                	beqz	a5,1504 <GPIO_Init+0x7a>
    14a6:	00052303          	lw	t1,0(a0) # 2000 <puts+0x12>
    14aa:	1161                	addi	sp,sp,-8
    14ac:	c222                	sw	s0,4(sp)
    14ae:	c026                	sw	s1,0(sp)
    14b0:	4781                	li	a5,0
    14b2:	02800413          	li	s0,40
    14b6:	04800493          	li	s1,72
    14ba:	4705                	li	a4,1
    14bc:	00f71633          	sll	a2,a4,a5
    14c0:	00c3f733          	and	a4,t2,a2
    14c4:	02e61263          	bne	a2,a4,14e8 <GPIO_Init+0x5e>
    14c8:	00279593          	slli	a1,a5,0x2
    14cc:	473d                	li	a4,15
    14ce:	00b71733          	sll	a4,a4,a1
    14d2:	fff74713          	not	a4,a4
    14d6:	00677333          	and	t1,a4,t1
    14da:	00b295b3          	sll	a1,t0,a1
    14de:	0065e333          	or	t1,a1,t1
    14e2:	00869d63          	bne	a3,s0,14fc <GPIO_Init+0x72>
    14e6:	c950                	sw	a2,20(a0)
    14e8:	0785                	addi	a5,a5,1
    14ea:	4721                	li	a4,8
    14ec:	fce797e3          	bne	a5,a4,14ba <GPIO_Init+0x30>
    14f0:	4412                	lw	s0,4(sp)
    14f2:	00652023          	sw	t1,0(a0)
    14f6:	4482                	lw	s1,0(sp)
    14f8:	0121                	addi	sp,sp,8
    14fa:	8082                	ret
    14fc:	fe9696e3          	bne	a3,s1,14e8 <GPIO_Init+0x5e>
    1500:	c910                	sw	a2,16(a0)
    1502:	b7dd                	j	14e8 <GPIO_Init+0x5e>
    1504:	8082                	ret

00001506 <GPIO_ReadInputDataBit>:
    1506:	4508                	lw	a0,8(a0)
    1508:	8d6d                	and	a0,a0,a1
    150a:	00a03533          	snez	a0,a0
    150e:	8082                	ret

00001510 <GPIO_SetBits>:
    1510:	c90c                	sw	a1,16(a0)
    1512:	8082                	ret

00001514 <GPIO_ResetBits>:
    1514:	c94c                	sw	a1,20(a0)
    1516:	8082                	ret

00001518 <GPIO_EXTILineConfig>:
    1518:	40010737          	lui	a4,0x40010
    151c:	4714                	lw	a3,8(a4)
    151e:	0586                	slli	a1,a1,0x1
    1520:	478d                	li	a5,3
    1522:	00b797b3          	sll	a5,a5,a1
    1526:	fff7c793          	not	a5,a5
    152a:	8ff5                	and	a5,a5,a3
    152c:	c71c                	sw	a5,8(a4)
    152e:	471c                	lw	a5,8(a4)
    1530:	00b515b3          	sll	a1,a0,a1
    1534:	8ddd                	or	a1,a1,a5
    1536:	c70c                	sw	a1,8(a4)
    1538:	8082                	ret

0000153a <NVIC_Init>:
    153a:	8081a683          	lw	a3,-2040(gp) # 20000040 <NVIC_Priority_Group>
    153e:	4785                	li	a5,1
    1540:	2118                	lbu	a4,0(a0)
    1542:	02f69063          	bne	a3,a5,1562 <NVIC_Init+0x28>
    1546:	311c                	lbu	a5,1(a0)
    1548:	02d79c63          	bne	a5,a3,1580 <NVIC_Init+0x46>
    154c:	213c                	lbu	a5,2(a0)
    154e:	079a                	slli	a5,a5,0x6
    1550:	f807e793          	ori	a5,a5,-128
    1554:	e000e6b7          	lui	a3,0xe000e
    1558:	0ff7f793          	andi	a5,a5,255
    155c:	96ba                	add	a3,a3,a4
    155e:	40f68023          	sb	a5,1024(a3) # e000e400 <__global_pointer$+0xc000dbc8>
    1562:	4685                	li	a3,1
    1564:	00575793          	srli	a5,a4,0x5
    1568:	00e69733          	sll	a4,a3,a4
    156c:	4154                	lw	a3,4(a0)
    156e:	ce89                	beqz	a3,1588 <NVIC_Init+0x4e>
    1570:	04078793          	addi	a5,a5,64
    1574:	078a                	slli	a5,a5,0x2
    1576:	e000e6b7          	lui	a3,0xe000e
    157a:	97b6                	add	a5,a5,a3
    157c:	c398                	sw	a4,0(a5)
    157e:	8082                	ret
    1580:	f3ed                	bnez	a5,1562 <NVIC_Init+0x28>
    1582:	213c                	lbu	a5,2(a0)
    1584:	079a                	slli	a5,a5,0x6
    1586:	b7f9                	j	1554 <NVIC_Init+0x1a>
    1588:	06078793          	addi	a5,a5,96
    158c:	e000e6b7          	lui	a3,0xe000e
    1590:	078a                	slli	a5,a5,0x2
    1592:	97b6                	add	a5,a5,a3
    1594:	c398                	sw	a4,0(a5)
    1596:	0000100f          	fence.i
    159a:	8082                	ret

0000159c <PWR_AutoWakeUpCmd>:
    159c:	40007737          	lui	a4,0x40007
    15a0:	471c                	lw	a5,8(a4)
    15a2:	c509                	beqz	a0,15ac <PWR_AutoWakeUpCmd+0x10>
    15a4:	0027e793          	ori	a5,a5,2
    15a8:	c71c                	sw	a5,8(a4)
    15aa:	8082                	ret
    15ac:	9bf5                	andi	a5,a5,-3
    15ae:	bfed                	j	15a8 <PWR_AutoWakeUpCmd+0xc>

000015b0 <PWR_AWU_SetPrescaler>:
    15b0:	40007737          	lui	a4,0x40007
    15b4:	4b1c                	lw	a5,16(a4)
    15b6:	9bc1                	andi	a5,a5,-16
    15b8:	8d5d                	or	a0,a0,a5
    15ba:	cb08                	sw	a0,16(a4)
    15bc:	8082                	ret

000015be <PWR_AWU_SetWindowValue>:
    15be:	1171                	addi	sp,sp,-4
    15c0:	c002                	sw	zero,0(sp)
    15c2:	40007737          	lui	a4,0x40007
    15c6:	475c                	lw	a5,12(a4)
    15c8:	fc07f793          	andi	a5,a5,-64
    15cc:	c03e                	sw	a5,0(sp)
    15ce:	4782                	lw	a5,0(sp)
    15d0:	8d5d                	or	a0,a0,a5
    15d2:	c02a                	sw	a0,0(sp)
    15d4:	4782                	lw	a5,0(sp)
    15d6:	c75c                	sw	a5,12(a4)
    15d8:	0111                	addi	sp,sp,4
    15da:	8082                	ret

000015dc <RCC_ADCCLKConfig>:
    15dc:	400216b7          	lui	a3,0x40021
    15e0:	42dc                	lw	a5,4(a3)
    15e2:	7741                	lui	a4,0xffff0
    15e4:	7ff70713          	addi	a4,a4,2047 # ffff07ff <__global_pointer$+0xdffeffc7>
    15e8:	8ff9                	and	a5,a5,a4
    15ea:	8d5d                	or	a0,a0,a5
    15ec:	c2c8                	sw	a0,4(a3)
    15ee:	8082                	ret

000015f0 <RCC_LSICmd>:
    15f0:	40021737          	lui	a4,0x40021
    15f4:	535c                	lw	a5,36(a4)
    15f6:	c509                	beqz	a0,1600 <RCC_LSICmd+0x10>
    15f8:	0017e793          	ori	a5,a5,1
    15fc:	d35c                	sw	a5,36(a4)
    15fe:	8082                	ret
    1600:	9bf9                	andi	a5,a5,-2
    1602:	bfed                	j	15fc <RCC_LSICmd+0xc>

00001604 <RCC_GetClocksFreq>:
    1604:	aa9fe2ef          	jal	t0,ac <__riscv_save_0>
    1608:	40021737          	lui	a4,0x40021
    160c:	435c                	lw	a5,4(a4)
    160e:	4691                	li	a3,4
    1610:	842a                	mv	s0,a0
    1612:	8bb1                	andi	a5,a5,12
    1614:	00d78563          	beq	a5,a3,161e <RCC_GetClocksFreq+0x1a>
    1618:	46a1                	li	a3,8
    161a:	08d78063          	beq	a5,a3,169a <RCC_GetClocksFreq+0x96>
    161e:	016e37b7          	lui	a5,0x16e3
    1622:	60078793          	addi	a5,a5,1536 # 16e3600 <_data_lma+0x16dfeb8>
    1626:	c01c                	sw	a5,0(s0)
    1628:	400216b7          	lui	a3,0x40021
    162c:	42dc                	lw	a5,4(a3)
    162e:	8391                	srli	a5,a5,0x4
    1630:	00f7f713          	andi	a4,a5,15
    1634:	200007b7          	lui	a5,0x20000
    1638:	02478793          	addi	a5,a5,36 # 20000024 <APBAHBPrescTable>
    163c:	97ba                	add	a5,a5,a4
    163e:	238c                	lbu	a1,0(a5)
    1640:	42dc                	lw	a5,4(a3)
    1642:	4018                	lw	a4,0(s0)
    1644:	0ff5f593          	andi	a1,a1,255
    1648:	0807f793          	andi	a5,a5,128
    164c:	00b75533          	srl	a0,a4,a1
    1650:	e781                	bnez	a5,1658 <RCC_GetClocksFreq+0x54>
    1652:	853a                	mv	a0,a4
    1654:	a8dfe0ef          	jal	ra,e0 <__udivsi3>
    1658:	c048                	sw	a0,4(s0)
    165a:	c408                	sw	a0,8(s0)
    165c:	c448                	sw	a0,12(s0)
    165e:	400217b7          	lui	a5,0x40021
    1662:	43dc                	lw	a5,4(a5)
    1664:	468d                	li	a3,3
    1666:	83ad                	srli	a5,a5,0xb
    1668:	8bfd                	andi	a5,a5,31
    166a:	0037d713          	srli	a4,a5,0x3
    166e:	078a                	slli	a5,a5,0x2
    1670:	8bf1                	andi	a5,a5,28
    1672:	8fd9                	or	a5,a5,a4
    1674:	0137f613          	andi	a2,a5,19
    1678:	0037f713          	andi	a4,a5,3
    167c:	00c6f463          	bgeu	a3,a2,1684 <RCC_GetClocksFreq+0x80>
    1680:	ff478713          	addi	a4,a5,-12 # 40020ff4 <__global_pointer$+0x200207bc>
    1684:	200007b7          	lui	a5,0x20000
    1688:	01078793          	addi	a5,a5,16 # 20000010 <ADCPrescTable>
    168c:	97ba                	add	a5,a5,a4
    168e:	238c                	lbu	a1,0(a5)
    1690:	a51fe0ef          	jal	ra,e0 <__udivsi3>
    1694:	c808                	sw	a0,16(s0)
    1696:	a21fe06f          	j	b6 <__riscv_restore_0>
    169a:	435c                	lw	a5,4(a4)
    169c:	02dc77b7          	lui	a5,0x2dc7
    16a0:	c0078793          	addi	a5,a5,-1024 # 2dc6c00 <_data_lma+0x2dc34b8>
    16a4:	b749                	j	1626 <RCC_GetClocksFreq+0x22>

000016a6 <RCC_APB2PeriphClockCmd>:
    16a6:	c599                	beqz	a1,16b4 <RCC_APB2PeriphClockCmd+0xe>
    16a8:	40021737          	lui	a4,0x40021
    16ac:	4f1c                	lw	a5,24(a4)
    16ae:	8d5d                	or	a0,a0,a5
    16b0:	cf08                	sw	a0,24(a4)
    16b2:	8082                	ret
    16b4:	400217b7          	lui	a5,0x40021
    16b8:	4f98                	lw	a4,24(a5)
    16ba:	fff54513          	not	a0,a0
    16be:	8d79                	and	a0,a0,a4
    16c0:	cf88                	sw	a0,24(a5)
    16c2:	8082                	ret

000016c4 <RCC_APB1PeriphClockCmd>:
    16c4:	c599                	beqz	a1,16d2 <RCC_APB1PeriphClockCmd+0xe>
    16c6:	40021737          	lui	a4,0x40021
    16ca:	4f5c                	lw	a5,28(a4)
    16cc:	8d5d                	or	a0,a0,a5
    16ce:	cf48                	sw	a0,28(a4)
    16d0:	8082                	ret
    16d2:	400217b7          	lui	a5,0x40021
    16d6:	4fd8                	lw	a4,28(a5)
    16d8:	fff54513          	not	a0,a0
    16dc:	8d79                	and	a0,a0,a4
    16de:	cfc8                	sw	a0,28(a5)
    16e0:	8082                	ret

000016e2 <RCC_APB2PeriphResetCmd>:
    16e2:	c599                	beqz	a1,16f0 <RCC_APB2PeriphResetCmd+0xe>
    16e4:	40021737          	lui	a4,0x40021
    16e8:	475c                	lw	a5,12(a4)
    16ea:	8d5d                	or	a0,a0,a5
    16ec:	c748                	sw	a0,12(a4)
    16ee:	8082                	ret
    16f0:	400217b7          	lui	a5,0x40021
    16f4:	47d8                	lw	a4,12(a5)
    16f6:	fff54513          	not	a0,a0
    16fa:	8d79                	and	a0,a0,a4
    16fc:	c7c8                	sw	a0,12(a5)
    16fe:	8082                	ret

00001700 <RCC_GetFlagStatus>:
    1700:	00555713          	srli	a4,a0,0x5
    1704:	4785                	li	a5,1
    1706:	00f71963          	bne	a4,a5,1718 <RCC_GetFlagStatus+0x18>
    170a:	400217b7          	lui	a5,0x40021
    170e:	439c                	lw	a5,0(a5)
    1710:	00a7d533          	srl	a0,a5,a0
    1714:	8905                	andi	a0,a0,1
    1716:	8082                	ret
    1718:	400217b7          	lui	a5,0x40021
    171c:	53dc                	lw	a5,36(a5)
    171e:	bfcd                	j	1710 <RCC_GetFlagStatus+0x10>

00001720 <SPI_Init>:
    1720:	211a                	lhu	a4,0(a0)
    1722:	678d                	lui	a5,0x3
    1724:	04078793          	addi	a5,a5,64 # 3040 <PAIRING_ADDR+0x54>
    1728:	21b6                	lhu	a3,2(a1)
    172a:	8f7d                	and	a4,a4,a5
    172c:	219e                	lhu	a5,0(a1)
    172e:	8fd5                	or	a5,a5,a3
    1730:	21d6                	lhu	a3,4(a1)
    1732:	8fd5                	or	a5,a5,a3
    1734:	21f6                	lhu	a3,6(a1)
    1736:	8fd5                	or	a5,a5,a3
    1738:	2596                	lhu	a3,8(a1)
    173a:	8fd5                	or	a5,a5,a3
    173c:	25b6                	lhu	a3,10(a1)
    173e:	8fd5                	or	a5,a5,a3
    1740:	25d6                	lhu	a3,12(a1)
    1742:	8fd5                	or	a5,a5,a3
    1744:	25f6                	lhu	a3,14(a1)
    1746:	8fd5                	or	a5,a5,a3
    1748:	8fd9                	or	a5,a5,a4
    174a:	a11e                	sh	a5,0(a0)
    174c:	299e                	lhu	a5,16(a1)
    174e:	a91e                	sh	a5,16(a0)
    1750:	8082                	ret

00001752 <SPI_Cmd>:
    1752:	211e                	lhu	a5,0(a0)
    1754:	c589                	beqz	a1,175e <SPI_Cmd+0xc>
    1756:	0407e793          	ori	a5,a5,64
    175a:	a11e                	sh	a5,0(a0)
    175c:	8082                	ret
    175e:	07c2                	slli	a5,a5,0x10
    1760:	83c1                	srli	a5,a5,0x10
    1762:	fbf7f793          	andi	a5,a5,-65
    1766:	07c2                	slli	a5,a5,0x10
    1768:	83c1                	srli	a5,a5,0x10
    176a:	bfc5                	j	175a <SPI_Cmd+0x8>

0000176c <SPI_I2S_SendData>:
    176c:	a54e                	sh	a1,12(a0)
    176e:	8082                	ret

00001770 <SPI_I2S_ReceiveData>:
    1770:	254a                	lhu	a0,12(a0)
    1772:	8082                	ret

00001774 <SPI_I2S_GetFlagStatus>:
    1774:	250a                	lhu	a0,8(a0)
    1776:	8d6d                	and	a0,a0,a1
    1778:	00a03533          	snez	a0,a0
    177c:	8082                	ret

0000177e <TIM_TimeBaseInit>:
    177e:	211e                	lhu	a5,0(a0)
    1780:	40013737          	lui	a4,0x40013
    1784:	c0070713          	addi	a4,a4,-1024 # 40012c00 <__global_pointer$+0x200123c8>
    1788:	07c2                	slli	a5,a5,0x10
    178a:	83c1                	srli	a5,a5,0x10
    178c:	00e50663          	beq	a0,a4,1798 <TIM_TimeBaseInit+0x1a>
    1790:	40000737          	lui	a4,0x40000
    1794:	00e51663          	bne	a0,a4,17a0 <TIM_TimeBaseInit+0x22>
    1798:	21ba                	lhu	a4,2(a1)
    179a:	f8f7f793          	andi	a5,a5,-113
    179e:	8fd9                	or	a5,a5,a4
    17a0:	21fa                	lhu	a4,6(a1)
    17a2:	cff7f793          	andi	a5,a5,-769
    17a6:	07c2                	slli	a5,a5,0x10
    17a8:	83c1                	srli	a5,a5,0x10
    17aa:	8fd9                	or	a5,a5,a4
    17ac:	a11e                	sh	a5,0(a0)
    17ae:	21de                	lhu	a5,4(a1)
    17b0:	b55e                	sh	a5,44(a0)
    17b2:	219e                	lhu	a5,0(a1)
    17b4:	b51e                	sh	a5,40(a0)
    17b6:	400137b7          	lui	a5,0x40013
    17ba:	c0078793          	addi	a5,a5,-1024 # 40012c00 <__global_pointer$+0x200123c8>
    17be:	00f51463          	bne	a0,a5,17c6 <TIM_TimeBaseInit+0x48>
    17c2:	259c                	lbu	a5,8(a1)
    17c4:	b91e                	sh	a5,48(a0)
    17c6:	4785                	li	a5,1
    17c8:	a95e                	sh	a5,20(a0)
    17ca:	8082                	ret

000017cc <TIM_Cmd>:
    17cc:	211e                	lhu	a5,0(a0)
    17ce:	c589                	beqz	a1,17d8 <TIM_Cmd+0xc>
    17d0:	0017e793          	ori	a5,a5,1
    17d4:	a11e                	sh	a5,0(a0)
    17d6:	8082                	ret
    17d8:	07c2                	slli	a5,a5,0x10
    17da:	83c1                	srli	a5,a5,0x10
    17dc:	9bf9                	andi	a5,a5,-2
    17de:	07c2                	slli	a5,a5,0x10
    17e0:	83c1                	srli	a5,a5,0x10
    17e2:	bfcd                	j	17d4 <TIM_Cmd+0x8>

000017e4 <TIM_ITConfig>:
    17e4:	255e                	lhu	a5,12(a0)
    17e6:	c601                	beqz	a2,17ee <TIM_ITConfig+0xa>
    17e8:	8ddd                	or	a1,a1,a5
    17ea:	a54e                	sh	a1,12(a0)
    17ec:	8082                	ret
    17ee:	fff5c593          	not	a1,a1
    17f2:	8dfd                	and	a1,a1,a5
    17f4:	bfdd                	j	17ea <TIM_ITConfig+0x6>

000017f6 <TIM_GetITStatus>:
    17f6:	291e                	lhu	a5,16(a0)
    17f8:	254a                	lhu	a0,12(a0)
    17fa:	8fed                	and	a5,a5,a1
    17fc:	0542                	slli	a0,a0,0x10
    17fe:	8141                	srli	a0,a0,0x10
    1800:	c789                	beqz	a5,180a <TIM_GetITStatus+0x14>
    1802:	8d6d                	and	a0,a0,a1
    1804:	00a03533          	snez	a0,a0
    1808:	8082                	ret
    180a:	4501                	li	a0,0
    180c:	8082                	ret

0000180e <TIM_ClearITPendingBit>:
    180e:	fff5c593          	not	a1,a1
    1812:	05c2                	slli	a1,a1,0x10
    1814:	81c1                	srli	a1,a1,0x10
    1816:	a90e                	sh	a1,16(a0)
    1818:	8082                	ret

0000181a <USART_Init>:
    181a:	893fe2ef          	jal	t0,ac <__riscv_save_0>
    181e:	2916                	lhu	a3,16(a0)
    1820:	77f5                	lui	a5,0xffffd
    1822:	17fd                	addi	a5,a5,-1
    1824:	8ff5                	and	a5,a5,a3
    1826:	21f6                	lhu	a3,6(a1)
    1828:	25da                	lhu	a4,12(a1)
    182a:	1121                	addi	sp,sp,-24
    182c:	8fd5                	or	a5,a5,a3
    182e:	a91e                	sh	a5,16(a0)
    1830:	2556                	lhu	a3,12(a0)
    1832:	77fd                	lui	a5,0xfffff
    1834:	9f378793          	addi	a5,a5,-1549 # ffffe9f3 <__global_pointer$+0xdfffe1bb>
    1838:	8ff5                	and	a5,a5,a3
    183a:	21d6                	lhu	a3,4(a1)
    183c:	842a                	mv	s0,a0
    183e:	c02e                	sw	a1,0(sp)
    1840:	8fd5                	or	a5,a5,a3
    1842:	2596                	lhu	a3,8(a1)
    1844:	8fd5                	or	a5,a5,a3
    1846:	25b6                	lhu	a3,10(a1)
    1848:	8fd5                	or	a5,a5,a3
    184a:	a55e                	sh	a5,12(a0)
    184c:	295e                	lhu	a5,20(a0)
    184e:	07c2                	slli	a5,a5,0x10
    1850:	83c1                	srli	a5,a5,0x10
    1852:	cff7f793          	andi	a5,a5,-769
    1856:	8f5d                	or	a4,a4,a5
    1858:	a95a                	sh	a4,20(a0)
    185a:	0048                	addi	a0,sp,4
    185c:	3365                	jal	1604 <RCC_GetClocksFreq>
    185e:	400147b7          	lui	a5,0x40014
    1862:	80078793          	addi	a5,a5,-2048 # 40013800 <__global_pointer$+0x20012fc8>
    1866:	4582                	lw	a1,0(sp)
    1868:	06f41263          	bne	s0,a5,18cc <USART_Init+0xb2>
    186c:	47c2                	lw	a5,16(sp)
    186e:	245a                	lhu	a4,12(s0)
    1870:	00179513          	slli	a0,a5,0x1
    1874:	953e                	add	a0,a0,a5
    1876:	0742                	slli	a4,a4,0x10
    1878:	050e                	slli	a0,a0,0x3
    187a:	8741                	srai	a4,a4,0x10
    187c:	953e                	add	a0,a0,a5
    187e:	418c                	lw	a1,0(a1)
    1880:	04075863          	bgez	a4,18d0 <USART_Init+0xb6>
    1884:	0586                	slli	a1,a1,0x1
    1886:	85bfe0ef          	jal	ra,e0 <__udivsi3>
    188a:	06400593          	li	a1,100
    188e:	c02a                	sw	a0,0(sp)
    1890:	851fe0ef          	jal	ra,e0 <__udivsi3>
    1894:	4782                	lw	a5,0(sp)
    1896:	00451493          	slli	s1,a0,0x4
    189a:	06400593          	li	a1,100
    189e:	853e                	mv	a0,a5
    18a0:	86dfe0ef          	jal	ra,10c <__umodsi3>
    18a4:	245e                	lhu	a5,12(s0)
    18a6:	07c2                	slli	a5,a5,0x10
    18a8:	87c1                	srai	a5,a5,0x10
    18aa:	0207d563          	bgez	a5,18d4 <USART_Init+0xba>
    18ae:	050e                	slli	a0,a0,0x3
    18b0:	06400593          	li	a1,100
    18b4:	03250513          	addi	a0,a0,50
    18b8:	829fe0ef          	jal	ra,e0 <__udivsi3>
    18bc:	891d                	andi	a0,a0,7
    18be:	8cc9                	or	s1,s1,a0
    18c0:	04c2                	slli	s1,s1,0x10
    18c2:	80c1                	srli	s1,s1,0x10
    18c4:	a406                	sh	s1,8(s0)
    18c6:	0161                	addi	sp,sp,24
    18c8:	feefe06f          	j	b6 <__riscv_restore_0>
    18cc:	47b2                	lw	a5,12(sp)
    18ce:	b745                	j	186e <USART_Init+0x54>
    18d0:	058a                	slli	a1,a1,0x2
    18d2:	bf55                	j	1886 <USART_Init+0x6c>
    18d4:	0512                	slli	a0,a0,0x4
    18d6:	06400593          	li	a1,100
    18da:	03250513          	addi	a0,a0,50
    18de:	803fe0ef          	jal	ra,e0 <__udivsi3>
    18e2:	893d                	andi	a0,a0,15
    18e4:	bfe9                	j	18be <USART_Init+0xa4>

000018e6 <USART_Cmd>:
    18e6:	c591                	beqz	a1,18f2 <USART_Cmd+0xc>
    18e8:	255e                	lhu	a5,12(a0)
    18ea:	6709                	lui	a4,0x2
    18ec:	8fd9                	or	a5,a5,a4
    18ee:	a55e                	sh	a5,12(a0)
    18f0:	8082                	ret
    18f2:	255a                	lhu	a4,12(a0)
    18f4:	77f9                	lui	a5,0xffffe
    18f6:	17fd                	addi	a5,a5,-1
    18f8:	8ff9                	and	a5,a5,a4
    18fa:	bfd5                	j	18ee <USART_Cmd+0x8>

000018fc <USART_SendData>:
    18fc:	1ff5f593          	andi	a1,a1,511
    1900:	a14e                	sh	a1,4(a0)
    1902:	8082                	ret

00001904 <USART_GetFlagStatus>:
    1904:	210a                	lhu	a0,0(a0)
    1906:	8d6d                	and	a0,a0,a1
    1908:	00a03533          	snez	a0,a0
    190c:	8082                	ret

0000190e <Delay_Init>:
    190e:	f9efe2ef          	jal	t0,ac <__riscv_save_0>
    1912:	200007b7          	lui	a5,0x20000
    1916:	00c7a503          	lw	a0,12(a5) # 2000000c <_highcode_vma_end>
    191a:	007a15b7          	lui	a1,0x7a1
    191e:	20058593          	addi	a1,a1,512 # 7a1200 <_data_lma+0x79dab8>
    1922:	fbefe0ef          	jal	ra,e0 <__udivsi3>
    1926:	0ff57513          	andi	a0,a0,255
    192a:	80a18723          	sb	a0,-2034(gp) # 20000046 <p_us>
    192e:	00551793          	slli	a5,a0,0x5
    1932:	8f89                	sub	a5,a5,a0
    1934:	078a                	slli	a5,a5,0x2
    1936:	953e                	add	a0,a0,a5
    1938:	050e                	slli	a0,a0,0x3
    193a:	80a19623          	sh	a0,-2036(gp) # 20000044 <p_ms>
    193e:	f78fe06f          	j	b6 <__riscv_restore_0>

00001942 <Delay_Ms>:
    1942:	f6afe2ef          	jal	t0,ac <__riscv_save_0>
    1946:	e000f437          	lui	s0,0xe000f
    194a:	405c                	lw	a5,4(s0)
    194c:	85aa                	mv	a1,a0
    194e:	9bf9                	andi	a5,a5,-2
    1950:	c05c                	sw	a5,4(s0)
    1952:	80c1d503          	lhu	a0,-2036(gp) # 20000044 <p_ms>
    1956:	f6afe0ef          	jal	ra,c0 <__mulsi3>
    195a:	c808                	sw	a0,16(s0)
    195c:	00042423          	sw	zero,8(s0) # e000f008 <__global_pointer$+0xc000e7d0>
    1960:	401c                	lw	a5,0(s0)
    1962:	0017e793          	ori	a5,a5,1
    1966:	c01c                	sw	a5,0(s0)
    1968:	e000f7b7          	lui	a5,0xe000f
    196c:	43d8                	lw	a4,4(a5)
    196e:	8b05                	andi	a4,a4,1
    1970:	df75                	beqz	a4,196c <Delay_Ms+0x2a>
    1972:	4398                	lw	a4,0(a5)
    1974:	9b79                	andi	a4,a4,-2
    1976:	c398                	sw	a4,0(a5)
    1978:	f3efe06f          	j	b6 <__riscv_restore_0>

0000197c <USART_Printf_Init>:
    197c:	f30fe2ef          	jal	t0,ac <__riscv_save_0>
    1980:	842a                	mv	s0,a0
    1982:	6511                	lui	a0,0x4
    1984:	1111                	addi	sp,sp,-28
    1986:	4585                	li	a1,1
    1988:	02050513          	addi	a0,a0,32 # 4020 <_data_lma+0x8d8>
    198c:	d1bff0ef          	jal	ra,16a6 <RCC_APB2PeriphClockCmd>
    1990:	02000793          	li	a5,32
    1994:	807c                	sh	a5,0(sp)
    1996:	40011537          	lui	a0,0x40011
    199a:	478d                	li	a5,3
    199c:	c23e                	sw	a5,4(sp)
    199e:	858a                	mv	a1,sp
    19a0:	47e1                	li	a5,24
    19a2:	40050513          	addi	a0,a0,1024 # 40011400 <__global_pointer$+0x20010bc8>
    19a6:	c43e                	sw	a5,8(sp)
    19a8:	ae3ff0ef          	jal	ra,148a <GPIO_Init>
    19ac:	c622                	sw	s0,12(sp)
    19ae:	40014437          	lui	s0,0x40014
    19b2:	000807b7          	lui	a5,0x80
    19b6:	006c                	addi	a1,sp,12
    19b8:	80040513          	addi	a0,s0,-2048 # 40013800 <__global_pointer$+0x20012fc8>
    19bc:	ca3e                	sw	a5,20(sp)
    19be:	c802                	sw	zero,16(sp)
    19c0:	00011c23          	sh	zero,24(sp)
    19c4:	3d99                	jal	181a <USART_Init>
    19c6:	4585                	li	a1,1
    19c8:	80040513          	addi	a0,s0,-2048
    19cc:	3f29                	jal	18e6 <USART_Cmd>
    19ce:	0171                	addi	sp,sp,28
    19d0:	ee6fe06f          	j	b6 <__riscv_restore_0>

000019d4 <_write>:
    19d4:	ed8fe2ef          	jal	t0,ac <__riscv_save_0>
    19d8:	1171                	addi	sp,sp,-4
    19da:	84ae                	mv	s1,a1
    19dc:	4401                	li	s0,0
    19de:	02c45d63          	bge	s0,a2,1a18 <_write+0x44>
    19e2:	400147b7          	lui	a5,0x40014
    19e6:	80078713          	addi	a4,a5,-2048 # 40013800 <__global_pointer$+0x20012fc8>
    19ea:	853a                	mv	a0,a4
    19ec:	04000593          	li	a1,64
    19f0:	c032                	sw	a2,0(sp)
    19f2:	3f09                	jal	1904 <USART_GetFlagStatus>
    19f4:	400147b7          	lui	a5,0x40014
    19f8:	80078713          	addi	a4,a5,-2048 # 40013800 <__global_pointer$+0x20012fc8>
    19fc:	4602                	lw	a2,0(sp)
    19fe:	d575                	beqz	a0,19ea <_write+0x16>
    1a00:	00848733          	add	a4,s1,s0
    1a04:	00070583          	lb	a1,0(a4) # 2000 <puts+0x12>
    1a08:	80078513          	addi	a0,a5,-2048
    1a0c:	0405                	addi	s0,s0,1
    1a0e:	05c2                	slli	a1,a1,0x10
    1a10:	81c1                	srli	a1,a1,0x10
    1a12:	35ed                	jal	18fc <USART_SendData>
    1a14:	4602                	lw	a2,0(sp)
    1a16:	b7e1                	j	19de <_write+0xa>
    1a18:	8532                	mv	a0,a2
    1a1a:	0111                	addi	sp,sp,4
    1a1c:	e9afe06f          	j	b6 <__riscv_restore_0>

00001a20 <printchar>:
    1a20:	1141                	addi	sp,sp,-16
    1a22:	c606                	sw	ra,12(sp)
    1a24:	c02e                	sw	a1,0(sp)
    1a26:	cd0d                	beqz	a0,1a60 <printchar+0x40>
    1a28:	4118                	lw	a4,0(a0)
    1a2a:	87aa                	mv	a5,a0
    1a2c:	c305                	beqz	a4,1a4c <printchar+0x2c>
    1a2e:	4158                	lw	a4,4(a0)
    1a30:	557d                	li	a0,-1
    1a32:	cb11                	beqz	a4,1a46 <printchar+0x26>
    1a34:	4685                	li	a3,1
    1a36:	00d71b63          	bne	a4,a3,1a4c <printchar+0x2c>
    1a3a:	4798                	lw	a4,8(a5)
    1a3c:	00070023          	sb	zero,0(a4)
    1a40:	0007a223          	sw	zero,4(a5)
    1a44:	4505                	li	a0,1
    1a46:	40b2                	lw	ra,12(sp)
    1a48:	0141                	addi	sp,sp,16
    1a4a:	8082                	ret
    1a4c:	4798                	lw	a4,8(a5)
    1a4e:	4682                	lw	a3,0(sp)
    1a50:	a314                	sb	a3,0(a4)
    1a52:	4798                	lw	a4,8(a5)
    1a54:	0705                	addi	a4,a4,1
    1a56:	c798                	sw	a4,8(a5)
    1a58:	43d8                	lw	a4,4(a5)
    1a5a:	177d                	addi	a4,a4,-1
    1a5c:	c3d8                	sw	a4,4(a5)
    1a5e:	b7dd                	j	1a44 <printchar+0x24>
    1a60:	4605                	li	a2,1
    1a62:	858a                	mv	a1,sp
    1a64:	3f85                	jal	19d4 <_write>
    1a66:	bff9                	j	1a44 <printchar+0x24>

00001a68 <prints>:
    1a68:	1101                	addi	sp,sp,-32
    1a6a:	cc22                	sw	s0,24(sp)
    1a6c:	c22e                	sw	a1,4(sp)
    1a6e:	ce06                	sw	ra,28(sp)
    1a70:	ca26                	sw	s1,20(sp)
    1a72:	842a                	mv	s0,a0
    1a74:	4781                	li	a5,0
    1a76:	02000593          	li	a1,32
    1a7a:	02064563          	bltz	a2,1aa4 <prints+0x3c>
    1a7e:	4592                	lw	a1,4(sp)
    1a80:	95be                	add	a1,a1,a5
    1a82:	00058583          	lb	a1,0(a1)
    1a86:	e58d                	bnez	a1,1ab0 <prints+0x48>
    1a88:	02c7d863          	bge	a5,a2,1ab8 <prints+0x50>
    1a8c:	02e7d463          	bge	a5,a4,1ab4 <prints+0x4c>
    1a90:	8e19                	sub	a2,a2,a4
    1a92:	02000513          	li	a0,32
    1a96:	0026f593          	andi	a1,a3,2
    1a9a:	c02a                	sw	a0,0(sp)
    1a9c:	c589                	beqz	a1,1aa6 <prints+0x3e>
    1a9e:	e701                	bnez	a4,1aa6 <prints+0x3e>
    1aa0:	03000593          	li	a1,48
    1aa4:	c02e                	sw	a1,0(sp)
    1aa6:	8a85                	andi	a3,a3,1
    1aa8:	4481                	li	s1,0
    1aaa:	ea95                	bnez	a3,1ade <prints+0x76>
    1aac:	84b2                	mv	s1,a2
    1aae:	a00d                	j	1ad0 <prints+0x68>
    1ab0:	0785                	addi	a5,a5,1
    1ab2:	b7f1                	j	1a7e <prints+0x16>
    1ab4:	8e1d                	sub	a2,a2,a5
    1ab6:	bff1                	j	1a92 <prints+0x2a>
    1ab8:	4601                	li	a2,0
    1aba:	bfe1                	j	1a92 <prints+0x2a>
    1abc:	4582                	lw	a1,0(sp)
    1abe:	8522                	mv	a0,s0
    1ac0:	c83a                	sw	a4,16(sp)
    1ac2:	c632                	sw	a2,12(sp)
    1ac4:	c43e                	sw	a5,8(sp)
    1ac6:	3fa9                	jal	1a20 <printchar>
    1ac8:	47a2                	lw	a5,8(sp)
    1aca:	4632                	lw	a2,12(sp)
    1acc:	4742                	lw	a4,16(sp)
    1ace:	14fd                	addi	s1,s1,-1
    1ad0:	fe9046e3          	bgtz	s1,1abc <prints+0x54>
    1ad4:	84b2                	mv	s1,a2
    1ad6:	00065363          	bgez	a2,1adc <prints+0x74>
    1ada:	4481                	li	s1,0
    1adc:	8e05                	sub	a2,a2,s1
    1ade:	02e7c763          	blt	a5,a4,1b0c <prints+0xa4>
    1ae2:	87a6                	mv	a5,s1
    1ae4:	4692                	lw	a3,4(sp)
    1ae6:	40978733          	sub	a4,a5,s1
    1aea:	9736                	add	a4,a4,a3
    1aec:	00070583          	lb	a1,0(a4)
    1af0:	ed95                	bnez	a1,1b2c <prints+0xc4>
    1af2:	84b2                	mv	s1,a2
    1af4:	04904463          	bgtz	s1,1b3c <prints+0xd4>
    1af8:	00065363          	bgez	a2,1afe <prints+0x96>
    1afc:	4601                	li	a2,0
    1afe:	40f2                	lw	ra,28(sp)
    1b00:	4462                	lw	s0,24(sp)
    1b02:	44d2                	lw	s1,20(sp)
    1b04:	00f60533          	add	a0,a2,a5
    1b08:	6105                	addi	sp,sp,32
    1b0a:	8082                	ret
    1b0c:	8f1d                	sub	a4,a4,a5
    1b0e:	87ba                	mv	a5,a4
    1b10:	03000593          	li	a1,48
    1b14:	8522                	mv	a0,s0
    1b16:	c832                	sw	a2,16(sp)
    1b18:	c63e                	sw	a5,12(sp)
    1b1a:	c43a                	sw	a4,8(sp)
    1b1c:	3711                	jal	1a20 <printchar>
    1b1e:	47b2                	lw	a5,12(sp)
    1b20:	4722                	lw	a4,8(sp)
    1b22:	4642                	lw	a2,16(sp)
    1b24:	17fd                	addi	a5,a5,-1
    1b26:	f7ed                	bnez	a5,1b10 <prints+0xa8>
    1b28:	94ba                	add	s1,s1,a4
    1b2a:	bf65                	j	1ae2 <prints+0x7a>
    1b2c:	8522                	mv	a0,s0
    1b2e:	c632                	sw	a2,12(sp)
    1b30:	c43e                	sw	a5,8(sp)
    1b32:	35fd                	jal	1a20 <printchar>
    1b34:	47a2                	lw	a5,8(sp)
    1b36:	4632                	lw	a2,12(sp)
    1b38:	0785                	addi	a5,a5,1
    1b3a:	b76d                	j	1ae4 <prints+0x7c>
    1b3c:	4582                	lw	a1,0(sp)
    1b3e:	8522                	mv	a0,s0
    1b40:	c432                	sw	a2,8(sp)
    1b42:	c23e                	sw	a5,4(sp)
    1b44:	3df1                	jal	1a20 <printchar>
    1b46:	14fd                	addi	s1,s1,-1
    1b48:	4622                	lw	a2,8(sp)
    1b4a:	4792                	lw	a5,4(sp)
    1b4c:	b765                	j	1af4 <prints+0x8c>

00001b4e <printInt>:
    1b4e:	7139                	addi	sp,sp,-64
    1b50:	de06                	sw	ra,60(sp)
    1b52:	dc22                	sw	s0,56(sp)
    1b54:	da26                	sw	s1,52(sp)
    1b56:	c23e                	sw	a5,4(sp)
    1b58:	8332                	mv	t1,a2
    1b5a:	863a                	mv	a2,a4
    1b5c:	ed89                	bnez	a1,1b76 <printInt+0x28>
    1b5e:	4692                	lw	a3,4(sp)
    1b60:	03000793          	li	a5,48
    1b64:	4701                	li	a4,0
    1b66:	086c                	addi	a1,sp,28
    1b68:	86fc                	sh	a5,28(sp)
    1b6a:	3dfd                	jal	1a68 <prints>
    1b6c:	50f2                	lw	ra,60(sp)
    1b6e:	5462                	lw	s0,56(sp)
    1b70:	54d2                	lw	s1,52(sp)
    1b72:	6121                	addi	sp,sp,64
    1b74:	8082                	ret
    1b76:	84aa                	mv	s1,a0
    1b78:	8436                	mv	s0,a3
    1b7a:	87ae                	mv	a5,a1
    1b7c:	ca91                	beqz	a3,1b90 <printInt+0x42>
    1b7e:	4729                	li	a4,10
    1b80:	4401                	li	s0,0
    1b82:	00e31763          	bne	t1,a4,1b90 <printInt+0x42>
    1b86:	0005d563          	bgez	a1,1b90 <printInt+0x42>
    1b8a:	40b007b3          	neg	a5,a1
    1b8e:	4405                	li	s0,1
    1b90:	4686                	lw	a3,64(sp)
    1b92:	020109a3          	sb	zero,51(sp)
    1b96:	03310713          	addi	a4,sp,51
    1b9a:	fc668693          	addi	a3,a3,-58 # 40020fc6 <__global_pointer$+0x2002078e>
    1b9e:	c436                	sw	a3,8(sp)
    1ba0:	859a                	mv	a1,t1
    1ba2:	853e                	mv	a0,a5
    1ba4:	ca32                	sw	a2,20(sp)
    1ba6:	c83a                	sw	a4,16(sp)
    1ba8:	c61a                	sw	t1,12(sp)
    1baa:	c03e                	sw	a5,0(sp)
    1bac:	d60fe0ef          	jal	ra,10c <__umodsi3>
    1bb0:	46a5                	li	a3,9
    1bb2:	4782                	lw	a5,0(sp)
    1bb4:	4332                	lw	t1,12(sp)
    1bb6:	4742                	lw	a4,16(sp)
    1bb8:	4652                	lw	a2,20(sp)
    1bba:	00a6d463          	bge	a3,a0,1bc2 <printInt+0x74>
    1bbe:	46a2                	lw	a3,8(sp)
    1bc0:	9536                	add	a0,a0,a3
    1bc2:	03050513          	addi	a0,a0,48
    1bc6:	fff70693          	addi	a3,a4,-1
    1bca:	fea70fa3          	sb	a0,-1(a4)
    1bce:	859a                	mv	a1,t1
    1bd0:	853e                	mv	a0,a5
    1bd2:	cc32                	sw	a2,24(sp)
    1bd4:	ca3a                	sw	a4,20(sp)
    1bd6:	c81a                	sw	t1,16(sp)
    1bd8:	c63e                	sw	a5,12(sp)
    1bda:	c036                	sw	a3,0(sp)
    1bdc:	d04fe0ef          	jal	ra,e0 <__udivsi3>
    1be0:	47b2                	lw	a5,12(sp)
    1be2:	4342                	lw	t1,16(sp)
    1be4:	4752                	lw	a4,20(sp)
    1be6:	4662                	lw	a2,24(sp)
    1be8:	0467fb63          	bgeu	a5,t1,1c3e <printInt+0xf0>
    1bec:	cc01                	beqz	s0,1c04 <printInt+0xb6>
    1bee:	ca39                	beqz	a2,1c44 <printInt+0xf6>
    1bf0:	4792                	lw	a5,4(sp)
    1bf2:	8b89                	andi	a5,a5,2
    1bf4:	cba1                	beqz	a5,1c44 <printInt+0xf6>
    1bf6:	02d00593          	li	a1,45
    1bfa:	8526                	mv	a0,s1
    1bfc:	c432                	sw	a2,8(sp)
    1bfe:	350d                	jal	1a20 <printchar>
    1c00:	4622                	lw	a2,8(sp)
    1c02:	167d                	addi	a2,a2,-1
    1c04:	4792                	lw	a5,4(sp)
    1c06:	8b91                	andi	a5,a5,4
    1c08:	c785                	beqz	a5,1c30 <printInt+0xe2>
    1c0a:	4706                	lw	a4,64(sp)
    1c0c:	06100793          	li	a5,97
    1c10:	c432                	sw	a2,8(sp)
    1c12:	03000593          	li	a1,48
    1c16:	8526                	mv	a0,s1
    1c18:	04f71063          	bne	a4,a5,1c58 <printInt+0x10a>
    1c1c:	e05ff0ef          	jal	ra,1a20 <printchar>
    1c20:	07800593          	li	a1,120
    1c24:	8526                	mv	a0,s1
    1c26:	dfbff0ef          	jal	ra,1a20 <printchar>
    1c2a:	4622                	lw	a2,8(sp)
    1c2c:	0409                	addi	s0,s0,2
    1c2e:	1679                	addi	a2,a2,-2
    1c30:	4716                	lw	a4,68(sp)
    1c32:	4692                	lw	a3,4(sp)
    1c34:	4582                	lw	a1,0(sp)
    1c36:	8526                	mv	a0,s1
    1c38:	3d05                	jal	1a68 <prints>
    1c3a:	9522                	add	a0,a0,s0
    1c3c:	bf05                	j	1b6c <printInt+0x1e>
    1c3e:	87aa                	mv	a5,a0
    1c40:	4702                	lw	a4,0(sp)
    1c42:	bfb9                	j	1ba0 <printInt+0x52>
    1c44:	4682                	lw	a3,0(sp)
    1c46:	02d00793          	li	a5,45
    1c4a:	4401                	li	s0,0
    1c4c:	fef68fa3          	sb	a5,-1(a3)
    1c50:	ffe70793          	addi	a5,a4,-2
    1c54:	c03e                	sw	a5,0(sp)
    1c56:	b77d                	j	1c04 <printInt+0xb6>
    1c58:	dc9ff0ef          	jal	ra,1a20 <printchar>
    1c5c:	05800593          	li	a1,88
    1c60:	b7d1                	j	1c24 <printInt+0xd6>

00001c62 <printLongLongInt>:
    1c62:	4501                	li	a0,0
    1c64:	8082                	ret

00001c66 <printDouble>:
    1c66:	4501                	li	a0,0
    1c68:	8082                	ret

00001c6a <print>:
    1c6a:	fd810113          	addi	sp,sp,-40
    1c6e:	d022                	sw	s0,32(sp)
    1c70:	ce26                	sw	s1,28(sp)
    1c72:	d206                	sw	ra,36(sp)
    1c74:	c42a                	sw	a0,8(sp)
    1c76:	82ae                	mv	t0,a1
    1c78:	8432                	mv	s0,a2
    1c7a:	c602                	sw	zero,12(sp)
    1c7c:	4481                	li	s1,0
    1c7e:	00028583          	lb	a1,0(t0)
    1c82:	ed91                	bnez	a1,1c9e <print+0x34>
    1c84:	47a2                	lw	a5,8(sp)
    1c86:	c789                	beqz	a5,1c90 <print+0x26>
    1c88:	4581                	li	a1,0
    1c8a:	853e                	mv	a0,a5
    1c8c:	d95ff0ef          	jal	ra,1a20 <printchar>
    1c90:	5092                	lw	ra,36(sp)
    1c92:	5402                	lw	s0,32(sp)
    1c94:	8526                	mv	a0,s1
    1c96:	44f2                	lw	s1,28(sp)
    1c98:	02810113          	addi	sp,sp,40
    1c9c:	8082                	ret
    1c9e:	02500793          	li	a5,37
    1ca2:	00f58963          	beq	a1,a5,1cb4 <print+0x4a>
    1ca6:	4522                	lw	a0,8(sp)
    1ca8:	c816                	sw	t0,16(sp)
    1caa:	0485                	addi	s1,s1,1
    1cac:	d75ff0ef          	jal	ra,1a20 <printchar>
    1cb0:	42c2                	lw	t0,16(sp)
    1cb2:	a005                	j	1cd2 <print+0x68>
    1cb4:	00128783          	lb	a5,1(t0)
    1cb8:	00128713          	addi	a4,t0,1
    1cbc:	00b79d63          	bne	a5,a1,1cd6 <print+0x6c>
    1cc0:	4522                	lw	a0,8(sp)
    1cc2:	02500593          	li	a1,37
    1cc6:	c83a                	sw	a4,16(sp)
    1cc8:	d59ff0ef          	jal	ra,1a20 <printchar>
    1ccc:	4742                	lw	a4,16(sp)
    1cce:	0485                	addi	s1,s1,1
    1cd0:	82ba                	mv	t0,a4
    1cd2:	0285                	addi	t0,t0,1
    1cd4:	b76d                	j	1c7e <print+0x14>
    1cd6:	d7dd                	beqz	a5,1c84 <print+0x1a>
    1cd8:	02b00693          	li	a3,43
    1cdc:	04d78963          	beq	a5,a3,1d2e <print+0xc4>
    1ce0:	00f6c863          	blt	a3,a5,1cf0 <print+0x86>
    1ce4:	02300693          	li	a3,35
    1ce8:	04d78663          	beq	a5,a3,1d34 <print+0xca>
    1cec:	4781                	li	a5,0
    1cee:	a005                	j	1d0e <print+0xa4>
    1cf0:	02d00693          	li	a3,45
    1cf4:	00d78a63          	beq	a5,a3,1d08 <print+0x9e>
    1cf8:	03000693          	li	a3,48
    1cfc:	fed798e3          	bne	a5,a3,1cec <print+0x82>
    1d00:	00228713          	addi	a4,t0,2
    1d04:	4789                	li	a5,2
    1d06:	a021                	j	1d0e <print+0xa4>
    1d08:	00228713          	addi	a4,t0,2
    1d0c:	4785                	li	a5,1
    1d0e:	00070683          	lb	a3,0(a4)
    1d12:	02b00613          	li	a2,43
    1d16:	04c68363          	beq	a3,a2,1d5c <print+0xf2>
    1d1a:	02d64163          	blt	a2,a3,1d3c <print+0xd2>
    1d1e:	02300613          	li	a2,35
    1d22:	02c68b63          	beq	a3,a2,1d58 <print+0xee>
    1d26:	82ba                	mv	t0,a4
    1d28:	4501                	li	a0,0
    1d2a:	46a5                	li	a3,9
    1d2c:	a081                	j	1d6c <print+0x102>
    1d2e:	00228713          	addi	a4,t0,2
    1d32:	bf6d                	j	1cec <print+0x82>
    1d34:	00228713          	addi	a4,t0,2
    1d38:	4791                	li	a5,4
    1d3a:	bfd1                	j	1d0e <print+0xa4>
    1d3c:	02d00613          	li	a2,45
    1d40:	00c68963          	beq	a3,a2,1d52 <print+0xe8>
    1d44:	03000613          	li	a2,48
    1d48:	fcc69fe3          	bne	a3,a2,1d26 <print+0xbc>
    1d4c:	0027e793          	ori	a5,a5,2
    1d50:	a031                	j	1d5c <print+0xf2>
    1d52:	0705                	addi	a4,a4,1
    1d54:	4785                	li	a5,1
    1d56:	bfc1                	j	1d26 <print+0xbc>
    1d58:	0047e793          	ori	a5,a5,4
    1d5c:	0705                	addi	a4,a4,1
    1d5e:	b7e1                	j	1d26 <print+0xbc>
    1d60:	00251613          	slli	a2,a0,0x2
    1d64:	9532                	add	a0,a0,a2
    1d66:	0506                	slli	a0,a0,0x1
    1d68:	953a                	add	a0,a0,a4
    1d6a:	0285                	addi	t0,t0,1
    1d6c:	00028603          	lb	a2,0(t0)
    1d70:	fd060713          	addi	a4,a2,-48
    1d74:	0ff77593          	andi	a1,a4,255
    1d78:	feb6f4e3          	bgeu	a3,a1,1d60 <print+0xf6>
    1d7c:	02e00713          	li	a4,46
    1d80:	4699                	li	a3,6
    1d82:	00e61e63          	bne	a2,a4,1d9e <print+0x134>
    1d86:	0285                	addi	t0,t0,1
    1d88:	4681                	li	a3,0
    1d8a:	45a5                	li	a1,9
    1d8c:	00028603          	lb	a2,0(t0)
    1d90:	fd060613          	addi	a2,a2,-48
    1d94:	0ff67713          	andi	a4,a2,255
    1d98:	02e5f563          	bgeu	a1,a4,1dc2 <print+0x158>
    1d9c:	c636                	sw	a3,12(sp)
    1d9e:	00028703          	lb	a4,0(t0)
    1da2:	06a00613          	li	a2,106
    1da6:	0ac70d63          	beq	a4,a2,1e60 <print+0x1f6>
    1daa:	02e64363          	blt	a2,a4,1dd0 <print+0x166>
    1dae:	04c00613          	li	a2,76
    1db2:	0ac70763          	beq	a4,a2,1e60 <print+0x1f6>
    1db6:	06800613          	li	a2,104
    1dba:	08c70c63          	beq	a4,a2,1e52 <print+0x1e8>
    1dbe:	4581                	li	a1,0
    1dc0:	a82d                	j	1dfa <print+0x190>
    1dc2:	00269713          	slli	a4,a3,0x2
    1dc6:	96ba                	add	a3,a3,a4
    1dc8:	0686                	slli	a3,a3,0x1
    1dca:	96b2                	add	a3,a3,a2
    1dcc:	0285                	addi	t0,t0,1
    1dce:	bf7d                	j	1d8c <print+0x122>
    1dd0:	07400613          	li	a2,116
    1dd4:	08c70663          	beq	a4,a2,1e60 <print+0x1f6>
    1dd8:	07a00613          	li	a2,122
    1ddc:	08c70263          	beq	a4,a2,1e60 <print+0x1f6>
    1de0:	06c00613          	li	a2,108
    1de4:	4581                	li	a1,0
    1de6:	00c71a63          	bne	a4,a2,1dfa <print+0x190>
    1dea:	00128603          	lb	a2,1(t0)
    1dee:	458d                	li	a1,3
    1df0:	00e61463          	bne	a2,a4,1df8 <print+0x18e>
    1df4:	0285                	addi	t0,t0,1
    1df6:	4591                	li	a1,4
    1df8:	0285                	addi	t0,t0,1
    1dfa:	00028603          	lb	a2,0(t0)
    1dfe:	06000393          	li	t2,96
    1e02:	06100713          	li	a4,97
    1e06:	00c3c463          	blt	t2,a2,1e0e <print+0x1a4>
    1e0a:	04100713          	li	a4,65
    1e0e:	06700393          	li	t2,103
    1e12:	06c3c463          	blt	t2,a2,1e7a <print+0x210>
    1e16:	06500393          	li	t2,101
    1e1a:	18765663          	bge	a2,t2,1fa6 <print+0x33c>
    1e1e:	04700393          	li	t2,71
    1e22:	04c3c163          	blt	t2,a2,1e64 <print+0x1fa>
    1e26:	04500593          	li	a1,69
    1e2a:	16b65e63          	bge	a2,a1,1fa6 <print+0x33c>
    1e2e:	04300713          	li	a4,67
    1e32:	eae610e3          	bne	a2,a4,1cd2 <print+0x68>
    1e36:	4018                	lw	a4,0(s0)
    1e38:	00440393          	addi	t2,s0,4
    1e3c:	ca16                	sw	t0,20(sp)
    1e3e:	00e10c23          	sb	a4,24(sp)
    1e42:	c81e                	sw	t2,16(sp)
    1e44:	00010ca3          	sb	zero,25(sp)
    1e48:	4701                	li	a4,0
    1e4a:	86be                	mv	a3,a5
    1e4c:	862a                	mv	a2,a0
    1e4e:	082c                	addi	a1,sp,24
    1e50:	a849                	j	1ee2 <print+0x278>
    1e52:	00128603          	lb	a2,1(t0)
    1e56:	4581                	li	a1,0
    1e58:	fae611e3          	bne	a2,a4,1dfa <print+0x190>
    1e5c:	0289                	addi	t0,t0,2
    1e5e:	bf71                	j	1dfa <print+0x190>
    1e60:	0285                	addi	t0,t0,1
    1e62:	bfb1                	j	1dbe <print+0x154>
    1e64:	06300693          	li	a3,99
    1e68:	fcd607e3          	beq	a2,a3,1e36 <print+0x1cc>
    1e6c:	06c6cf63          	blt	a3,a2,1eea <print+0x280>
    1e70:	05800693          	li	a3,88
    1e74:	02d60363          	beq	a2,a3,1e9a <print+0x230>
    1e78:	bda9                	j	1cd2 <print+0x68>
    1e7a:	07300693          	li	a3,115
    1e7e:	04d60463          	beq	a2,a3,1ec6 <print+0x25c>
    1e82:	02c6cb63          	blt	a3,a2,1eb8 <print+0x24e>
    1e86:	06f00693          	li	a3,111
    1e8a:	0ed60563          	beq	a2,a3,1f74 <print+0x30a>
    1e8e:	07000693          	li	a3,112
    1e92:	0047e793          	ori	a5,a5,4
    1e96:	e2d61ee3          	bne	a2,a3,1cd2 <print+0x68>
    1e9a:	4691                	li	a3,4
    1e9c:	0cd59263          	bne	a1,a3,1f60 <print+0x2f6>
    1ea0:	00840393          	addi	t2,s0,8
    1ea4:	400c                	lw	a1,0(s0)
    1ea6:	4050                	lw	a2,4(s0)
    1ea8:	ca16                	sw	t0,20(sp)
    1eaa:	c23a                	sw	a4,4(sp)
    1eac:	c03e                	sw	a5,0(sp)
    1eae:	c81e                	sw	t2,16(sp)
    1eb0:	87aa                	mv	a5,a0
    1eb2:	4701                	li	a4,0
    1eb4:	46c1                	li	a3,16
    1eb6:	a881                	j	1f06 <print+0x29c>
    1eb8:	07500693          	li	a3,117
    1ebc:	06d60b63          	beq	a2,a3,1f32 <print+0x2c8>
    1ec0:	07800693          	li	a3,120
    1ec4:	bf45                	j	1e74 <print+0x20a>
    1ec6:	4018                	lw	a4,0(s0)
    1ec8:	000036b7          	lui	a3,0x3
    1ecc:	00440393          	addi	t2,s0,4
    1ed0:	58068593          	addi	a1,a3,1408 # 3580 <PAIRING_ADDR+0x594>
    1ed4:	c311                	beqz	a4,1ed8 <print+0x26e>
    1ed6:	85ba                	mv	a1,a4
    1ed8:	4732                	lw	a4,12(sp)
    1eda:	ca16                	sw	t0,20(sp)
    1edc:	c81e                	sw	t2,16(sp)
    1ede:	86be                	mv	a3,a5
    1ee0:	862a                	mv	a2,a0
    1ee2:	4522                	lw	a0,8(sp)
    1ee4:	b85ff0ef          	jal	ra,1a68 <prints>
    1ee8:	a015                	j	1f0c <print+0x2a2>
    1eea:	4691                	li	a3,4
    1eec:	02d59563          	bne	a1,a3,1f16 <print+0x2ac>
    1ef0:	00840393          	addi	t2,s0,8
    1ef4:	400c                	lw	a1,0(s0)
    1ef6:	4050                	lw	a2,4(s0)
    1ef8:	ca16                	sw	t0,20(sp)
    1efa:	c23a                	sw	a4,4(sp)
    1efc:	c03e                	sw	a5,0(sp)
    1efe:	c81e                	sw	t2,16(sp)
    1f00:	87aa                	mv	a5,a0
    1f02:	4705                	li	a4,1
    1f04:	46a9                	li	a3,10
    1f06:	4522                	lw	a0,8(sp)
    1f08:	d5bff0ef          	jal	ra,1c62 <printLongLongInt>
    1f0c:	43c2                	lw	t2,16(sp)
    1f0e:	94aa                	add	s1,s1,a0
    1f10:	841e                	mv	s0,t2
    1f12:	42d2                	lw	t0,20(sp)
    1f14:	bb7d                	j	1cd2 <print+0x68>
    1f16:	46b2                	lw	a3,12(sp)
    1f18:	400c                	lw	a1,0(s0)
    1f1a:	c816                	sw	t0,16(sp)
    1f1c:	c236                	sw	a3,4(sp)
    1f1e:	c03a                	sw	a4,0(sp)
    1f20:	0411                	addi	s0,s0,4
    1f22:	872a                	mv	a4,a0
    1f24:	4685                	li	a3,1
    1f26:	4629                	li	a2,10
    1f28:	4522                	lw	a0,8(sp)
    1f2a:	c25ff0ef          	jal	ra,1b4e <printInt>
    1f2e:	94aa                	add	s1,s1,a0
    1f30:	b341                	j	1cb0 <print+0x46>
    1f32:	4691                	li	a3,4
    1f34:	00d59d63          	bne	a1,a3,1f4e <print+0x2e4>
    1f38:	00840393          	addi	t2,s0,8
    1f3c:	400c                	lw	a1,0(s0)
    1f3e:	4050                	lw	a2,4(s0)
    1f40:	ca16                	sw	t0,20(sp)
    1f42:	c23a                	sw	a4,4(sp)
    1f44:	c03e                	sw	a5,0(sp)
    1f46:	c81e                	sw	t2,16(sp)
    1f48:	87aa                	mv	a5,a0
    1f4a:	4701                	li	a4,0
    1f4c:	bf65                	j	1f04 <print+0x29a>
    1f4e:	46b2                	lw	a3,12(sp)
    1f50:	400c                	lw	a1,0(s0)
    1f52:	c816                	sw	t0,16(sp)
    1f54:	c236                	sw	a3,4(sp)
    1f56:	c03a                	sw	a4,0(sp)
    1f58:	0411                	addi	s0,s0,4
    1f5a:	872a                	mv	a4,a0
    1f5c:	4681                	li	a3,0
    1f5e:	b7e1                	j	1f26 <print+0x2bc>
    1f60:	46b2                	lw	a3,12(sp)
    1f62:	c816                	sw	t0,16(sp)
    1f64:	400c                	lw	a1,0(s0)
    1f66:	4641                	li	a2,16
    1f68:	c236                	sw	a3,4(sp)
    1f6a:	c03a                	sw	a4,0(sp)
    1f6c:	0411                	addi	s0,s0,4
    1f6e:	872a                	mv	a4,a0
    1f70:	4681                	li	a3,0
    1f72:	bf5d                	j	1f28 <print+0x2be>
    1f74:	4691                	li	a3,4
    1f76:	00d59e63          	bne	a1,a3,1f92 <print+0x328>
    1f7a:	00840393          	addi	t2,s0,8
    1f7e:	400c                	lw	a1,0(s0)
    1f80:	4050                	lw	a2,4(s0)
    1f82:	ca16                	sw	t0,20(sp)
    1f84:	c23a                	sw	a4,4(sp)
    1f86:	c03e                	sw	a5,0(sp)
    1f88:	c81e                	sw	t2,16(sp)
    1f8a:	87aa                	mv	a5,a0
    1f8c:	4701                	li	a4,0
    1f8e:	46a1                	li	a3,8
    1f90:	bf9d                	j	1f06 <print+0x29c>
    1f92:	46b2                	lw	a3,12(sp)
    1f94:	400c                	lw	a1,0(s0)
    1f96:	c816                	sw	t0,16(sp)
    1f98:	c236                	sw	a3,4(sp)
    1f9a:	c03a                	sw	a4,0(sp)
    1f9c:	0411                	addi	s0,s0,4
    1f9e:	872a                	mv	a4,a0
    1fa0:	4681                	li	a3,0
    1fa2:	4621                	li	a2,8
    1fa4:	b751                	j	1f28 <print+0x2be>
    1fa6:	400c                	lw	a1,0(s0)
    1fa8:	00840613          	addi	a2,s0,8
    1fac:	4040                	lw	s0,4(s0)
    1fae:	c23a                	sw	a4,4(sp)
    1fb0:	872a                	mv	a4,a0
    1fb2:	4522                	lw	a0,8(sp)
    1fb4:	c832                	sw	a2,16(sp)
    1fb6:	c03e                	sw	a5,0(sp)
    1fb8:	8622                	mv	a2,s0
    1fba:	87b6                	mv	a5,a3
    1fbc:	46a9                	li	a3,10
    1fbe:	ca16                	sw	t0,20(sp)
    1fc0:	ca7ff0ef          	jal	ra,1c66 <printDouble>
    1fc4:	94aa                	add	s1,s1,a0
    1fc6:	4442                	lw	s0,16(sp)
    1fc8:	b7a9                	j	1f12 <print+0x2a8>

00001fca <printf>:
    1fca:	fdc10113          	addi	sp,sp,-36
    1fce:	c82e                	sw	a1,16(sp)
    1fd0:	ca32                	sw	a2,20(sp)
    1fd2:	85aa                	mv	a1,a0
    1fd4:	0810                	addi	a2,sp,16
    1fd6:	4501                	li	a0,0
    1fd8:	c606                	sw	ra,12(sp)
    1fda:	cc36                	sw	a3,24(sp)
    1fdc:	ce3a                	sw	a4,28(sp)
    1fde:	d03e                	sw	a5,32(sp)
    1fe0:	c032                	sw	a2,0(sp)
    1fe2:	c89ff0ef          	jal	ra,1c6a <print>
    1fe6:	40b2                	lw	ra,12(sp)
    1fe8:	02410113          	addi	sp,sp,36
    1fec:	8082                	ret

00001fee <puts>:
    1fee:	1141                	addi	sp,sp,-16
    1ff0:	c422                	sw	s0,8(sp)
    1ff2:	c226                	sw	s1,4(sp)
    1ff4:	c606                	sw	ra,12(sp)
    1ff6:	211c                	lbu	a5,0(a0)
    1ff8:	84aa                	mv	s1,a0
    1ffa:	4401                	li	s0,0
    1ffc:	81dc                	sb	a5,3(sp)
    1ffe:	00310783          	lb	a5,3(sp)
    2002:	0405                	addi	s0,s0,1
    2004:	ef99                	bnez	a5,2022 <puts+0x34>
    2006:	47a9                	li	a5,10
    2008:	00310593          	addi	a1,sp,3
    200c:	4605                	li	a2,1
    200e:	4501                	li	a0,0
    2010:	81dc                	sb	a5,3(sp)
    2012:	9c3ff0ef          	jal	ra,19d4 <_write>
    2016:	8522                	mv	a0,s0
    2018:	40b2                	lw	ra,12(sp)
    201a:	4422                	lw	s0,8(sp)
    201c:	4492                	lw	s1,4(sp)
    201e:	0141                	addi	sp,sp,16
    2020:	8082                	ret
    2022:	4605                	li	a2,1
    2024:	00310593          	addi	a1,sp,3
    2028:	4501                	li	a0,0
    202a:	9abff0ef          	jal	ra,19d4 <_write>
    202e:	008487b3          	add	a5,s1,s0
    2032:	239c                	lbu	a5,0(a5)
    2034:	81dc                	sb	a5,3(sp)
    2036:	b7e1                	j	1ffe <puts+0x10>

00002038 <__addsf3>:
    2038:	00800737          	lui	a4,0x800
    203c:	177d                	addi	a4,a4,-1
    203e:	1141                	addi	sp,sp,-16
    2040:	00a77333          	and	t1,a4,a0
    2044:	0175d613          	srli	a2,a1,0x17
    2048:	00331293          	slli	t0,t1,0x3
    204c:	c422                	sw	s0,8(sp)
    204e:	01755413          	srli	s0,a0,0x17
    2052:	0ff47413          	andi	s0,s0,255
    2056:	8f6d                	and	a4,a4,a1
    2058:	c226                	sw	s1,4(sp)
    205a:	0ff67613          	andi	a2,a2,255
    205e:	01f55493          	srli	s1,a0,0x1f
    2062:	c016                	sw	t0,0(sp)
    2064:	c606                	sw	ra,12(sp)
    2066:	81fd                	srli	a1,a1,0x1f
    2068:	879a                	mv	a5,t1
    206a:	86a2                	mv	a3,s0
    206c:	8526                	mv	a0,s1
    206e:	00371393          	slli	t2,a4,0x3
    2072:	40c402b3          	sub	t0,s0,a2
    2076:	0eb48e63          	beq	s1,a1,2172 <__addsf3+0x13a>
    207a:	0c505263          	blez	t0,213e <__addsf3+0x106>
    207e:	14060863          	beqz	a2,21ce <__addsf3+0x196>
    2082:	0ff00793          	li	a5,255
    2086:	14f40d63          	beq	s0,a5,21e0 <__addsf3+0x1a8>
    208a:	040007b7          	lui	a5,0x4000
    208e:	00f3e3b3          	or	t2,t2,a5
    2092:	47ed                	li	a5,27
    2094:	2857c863          	blt	a5,t0,2324 <__addsf3+0x2ec>
    2098:	02000793          	li	a5,32
    209c:	405787b3          	sub	a5,a5,t0
    20a0:	00f397b3          	sll	a5,t2,a5
    20a4:	0053d2b3          	srl	t0,t2,t0
    20a8:	00f037b3          	snez	a5,a5
    20ac:	00f2e7b3          	or	a5,t0,a5
    20b0:	4702                	lw	a4,0(sp)
    20b2:	40f707b3          	sub	a5,a4,a5
    20b6:	00579713          	slli	a4,a5,0x5
    20ba:	18075f63          	bgez	a4,2258 <__addsf3+0x220>
    20be:	04000337          	lui	t1,0x4000
    20c2:	137d                	addi	t1,t1,-1
    20c4:	0067f7b3          	and	a5,a5,t1
    20c8:	853e                	mv	a0,a5
    20ca:	c03e                	sw	a5,0(sp)
    20cc:	6b3000ef          	jal	ra,2f7e <__clzsi2>
    20d0:	4782                	lw	a5,0(sp)
    20d2:	156d                	addi	a0,a0,-5
    20d4:	00a797b3          	sll	a5,a5,a0
    20d8:	1a854663          	blt	a0,s0,2284 <__addsf3+0x24c>
    20dc:	8d01                	sub	a0,a0,s0
    20de:	0505                	addi	a0,a0,1
    20e0:	02000313          	li	t1,32
    20e4:	40a30333          	sub	t1,t1,a0
    20e8:	00679333          	sll	t1,a5,t1
    20ec:	00603333          	snez	t1,t1
    20f0:	00a7d7b3          	srl	a5,a5,a0
    20f4:	0067e7b3          	or	a5,a5,t1
    20f8:	4401                	li	s0,0
    20fa:	0077f713          	andi	a4,a5,7
    20fe:	c719                	beqz	a4,210c <__addsf3+0xd4>
    2100:	00f7f713          	andi	a4,a5,15
    2104:	4691                	li	a3,4
    2106:	00d70363          	beq	a4,a3,210c <__addsf3+0xd4>
    210a:	0791                	addi	a5,a5,4
    210c:	00579713          	slli	a4,a5,0x5
    2110:	14075863          	bgez	a4,2260 <__addsf3+0x228>
    2114:	0405                	addi	s0,s0,1
    2116:	0ff00713          	li	a4,255
    211a:	8526                	mv	a0,s1
    211c:	16e40063          	beq	s0,a4,227c <__addsf3+0x244>
    2120:	079a                	slli	a5,a5,0x6
    2122:	83a5                	srli	a5,a5,0x9
    2124:	0ff47693          	andi	a3,s0,255
    2128:	40b2                	lw	ra,12(sp)
    212a:	4422                	lw	s0,8(sp)
    212c:	07a6                	slli	a5,a5,0x9
    212e:	06de                	slli	a3,a3,0x17
    2130:	83a5                	srli	a5,a5,0x9
    2132:	057e                	slli	a0,a0,0x1f
    2134:	8edd                	or	a3,a3,a5
    2136:	4492                	lw	s1,4(sp)
    2138:	8d55                	or	a0,a0,a3
    213a:	0141                	addi	sp,sp,16
    213c:	8082                	ret
    213e:	0a029963          	bnez	t0,21f0 <__addsf3+0x1b8>
    2142:	00140613          	addi	a2,s0,1
    2146:	0fe67613          	andi	a2,a2,254
    214a:	14061863          	bnez	a2,229a <__addsf3+0x262>
    214e:	22041663          	bnez	s0,237a <__addsf3+0x342>
    2152:	4602                	lw	a2,0(sp)
    2154:	20060263          	beqz	a2,2358 <__addsf3+0x320>
    2158:	fc0388e3          	beqz	t2,2128 <__addsf3+0xf0>
    215c:	4702                	lw	a4,0(sp)
    215e:	407707b3          	sub	a5,a4,t2
    2162:	00579613          	slli	a2,a5,0x5
    2166:	22065a63          	bgez	a2,239a <__addsf3+0x362>
    216a:	40e387b3          	sub	a5,t2,a4
    216e:	84ae                	mv	s1,a1
    2170:	b769                	j	20fa <__addsf3+0xc2>
    2172:	0a505963          	blez	t0,2224 <__addsf3+0x1ec>
    2176:	ce49                	beqz	a2,2210 <__addsf3+0x1d8>
    2178:	0ff00793          	li	a5,255
    217c:	06f40263          	beq	s0,a5,21e0 <__addsf3+0x1a8>
    2180:	040007b7          	lui	a5,0x4000
    2184:	00f3e3b3          	or	t2,t2,a5
    2188:	47ed                	li	a5,27
    218a:	2057c463          	blt	a5,t0,2392 <__addsf3+0x35a>
    218e:	02000793          	li	a5,32
    2192:	405787b3          	sub	a5,a5,t0
    2196:	00f397b3          	sll	a5,t2,a5
    219a:	0053d2b3          	srl	t0,t2,t0
    219e:	00f037b3          	snez	a5,a5
    21a2:	00f2e7b3          	or	a5,t0,a5
    21a6:	4702                	lw	a4,0(sp)
    21a8:	97ba                	add	a5,a5,a4
    21aa:	00579713          	slli	a4,a5,0x5
    21ae:	0a075563          	bgez	a4,2258 <__addsf3+0x220>
    21b2:	0405                	addi	s0,s0,1
    21b4:	0ff00713          	li	a4,255
    21b8:	0ce40263          	beq	s0,a4,227c <__addsf3+0x244>
    21bc:	7e0006b7          	lui	a3,0x7e000
    21c0:	0017d713          	srli	a4,a5,0x1
    21c4:	16fd                	addi	a3,a3,-1
    21c6:	8b85                	andi	a5,a5,1
    21c8:	8f75                	and	a4,a4,a3
    21ca:	8fd9                	or	a5,a5,a4
    21cc:	b73d                	j	20fa <__addsf3+0xc2>
    21ce:	08038b63          	beqz	t2,2264 <__addsf3+0x22c>
    21d2:	12fd                	addi	t0,t0,-1
    21d4:	18028763          	beqz	t0,2362 <__addsf3+0x32a>
    21d8:	0ff00793          	li	a5,255
    21dc:	eaf41be3          	bne	s0,a5,2092 <__addsf3+0x5a>
    21e0:	08030d63          	beqz	t1,227a <__addsf3+0x242>
    21e4:	4501                	li	a0,0
    21e6:	0ff00693          	li	a3,255
    21ea:	004007b7          	lui	a5,0x400
    21ee:	bf2d                	j	2128 <__addsf3+0xf0>
    21f0:	408607b3          	sub	a5,a2,s0
    21f4:	ec65                	bnez	s0,22ec <__addsf3+0x2b4>
    21f6:	4682                	lw	a3,0(sp)
    21f8:	14068563          	beqz	a3,2342 <__addsf3+0x30a>
    21fc:	17fd                	addi	a5,a5,-1
    21fe:	1a078363          	beqz	a5,23a4 <__addsf3+0x36c>
    2202:	0ff00693          	li	a3,255
    2206:	0ed61c63          	bne	a2,a3,22fe <__addsf3+0x2c6>
    220a:	84ae                	mv	s1,a1
    220c:	833a                	mv	t1,a4
    220e:	bfc9                	j	21e0 <__addsf3+0x1a8>
    2210:	04038a63          	beqz	t2,2264 <__addsf3+0x22c>
    2214:	12fd                	addi	t0,t0,-1
    2216:	12028363          	beqz	t0,233c <__addsf3+0x304>
    221a:	0ff00793          	li	a5,255
    221e:	f6f415e3          	bne	s0,a5,2188 <__addsf3+0x150>
    2222:	bf7d                	j	21e0 <__addsf3+0x1a8>
    2224:	08029863          	bnez	t0,22b4 <__addsf3+0x27c>
    2228:	0405                	addi	s0,s0,1
    222a:	0fe47613          	andi	a2,s0,254
    222e:	12061e63          	bnez	a2,236a <__addsf3+0x332>
    2232:	10069c63          	bnez	a3,234a <__addsf3+0x312>
    2236:	4602                	lw	a2,0(sp)
    2238:	16060b63          	beqz	a2,23ae <__addsf3+0x376>
    223c:	ee0386e3          	beqz	t2,2128 <__addsf3+0xf0>
    2240:	007607b3          	add	a5,a2,t2
    2244:	00579713          	slli	a4,a5,0x5
    2248:	4401                	li	s0,0
    224a:	00075763          	bgez	a4,2258 <__addsf3+0x220>
    224e:	fc000737          	lui	a4,0xfc000
    2252:	177d                	addi	a4,a4,-1
    2254:	8ff9                	and	a5,a5,a4
    2256:	4405                	li	s0,1
    2258:	0077f713          	andi	a4,a5,7
    225c:	ea0712e3          	bnez	a4,2100 <__addsf3+0xc8>
    2260:	0037d313          	srli	t1,a5,0x3
    2264:	0ff00793          	li	a5,255
    2268:	f6f40ce3          	beq	s0,a5,21e0 <__addsf3+0x1a8>
    226c:	00931793          	slli	a5,t1,0x9
    2270:	83a5                	srli	a5,a5,0x9
    2272:	0ff47693          	andi	a3,s0,255
    2276:	8526                	mv	a0,s1
    2278:	bd45                	j	2128 <__addsf3+0xf0>
    227a:	8526                	mv	a0,s1
    227c:	0ff00693          	li	a3,255
    2280:	4781                	li	a5,0
    2282:	b55d                	j	2128 <__addsf3+0xf0>
    2284:	fc000337          	lui	t1,0xfc000
    2288:	137d                	addi	t1,t1,-1
    228a:	0067f7b3          	and	a5,a5,t1
    228e:	0077f713          	andi	a4,a5,7
    2292:	8c09                	sub	s0,s0,a0
    2294:	e60716e3          	bnez	a4,2100 <__addsf3+0xc8>
    2298:	b7e1                	j	2260 <__addsf3+0x228>
    229a:	4782                	lw	a5,0(sp)
    229c:	407787b3          	sub	a5,a5,t2
    22a0:	00579713          	slli	a4,a5,0x5
    22a4:	0e074263          	bltz	a4,2388 <__addsf3+0x350>
    22a8:	e20790e3          	bnez	a5,20c8 <__addsf3+0x90>
    22ac:	4501                	li	a0,0
    22ae:	4681                	li	a3,0
    22b0:	4781                	li	a5,0
    22b2:	bd9d                	j	2128 <__addsf3+0xf0>
    22b4:	408607b3          	sub	a5,a2,s0
    22b8:	e825                	bnez	s0,2328 <__addsf3+0x2f0>
    22ba:	4682                	lw	a3,0(sp)
    22bc:	cafd                	beqz	a3,23b2 <__addsf3+0x37a>
    22be:	17fd                	addi	a5,a5,-1
    22c0:	cff5                	beqz	a5,23bc <__addsf3+0x384>
    22c2:	0ff00693          	li	a3,255
    22c6:	f4d603e3          	beq	a2,a3,220c <__addsf3+0x1d4>
    22ca:	476d                	li	a4,27
    22cc:	0ef74663          	blt	a4,a5,23b8 <__addsf3+0x380>
    22d0:	4682                	lw	a3,0(sp)
    22d2:	02000713          	li	a4,32
    22d6:	8f1d                	sub	a4,a4,a5
    22d8:	00e69733          	sll	a4,a3,a4
    22dc:	00f6d7b3          	srl	a5,a3,a5
    22e0:	00e03733          	snez	a4,a4
    22e4:	8fd9                	or	a5,a5,a4
    22e6:	979e                	add	a5,a5,t2
    22e8:	8432                	mv	s0,a2
    22ea:	b5c1                	j	21aa <__addsf3+0x172>
    22ec:	0ff00693          	li	a3,255
    22f0:	f0d60de3          	beq	a2,a3,220a <__addsf3+0x1d2>
    22f4:	4682                	lw	a3,0(sp)
    22f6:	04000737          	lui	a4,0x4000
    22fa:	8f55                	or	a4,a4,a3
    22fc:	c03a                	sw	a4,0(sp)
    22fe:	476d                	li	a4,27
    2300:	08f74b63          	blt	a4,a5,2396 <__addsf3+0x35e>
    2304:	4682                	lw	a3,0(sp)
    2306:	02000713          	li	a4,32
    230a:	8f1d                	sub	a4,a4,a5
    230c:	00e69733          	sll	a4,a3,a4
    2310:	00f6d7b3          	srl	a5,a3,a5
    2314:	00e03733          	snez	a4,a4
    2318:	8fd9                	or	a5,a5,a4
    231a:	40f387b3          	sub	a5,t2,a5
    231e:	8432                	mv	s0,a2
    2320:	84ae                	mv	s1,a1
    2322:	bb51                	j	20b6 <__addsf3+0x7e>
    2324:	4785                	li	a5,1
    2326:	b369                	j	20b0 <__addsf3+0x78>
    2328:	0ff00693          	li	a3,255
    232c:	eed600e3          	beq	a2,a3,220c <__addsf3+0x1d4>
    2330:	4682                	lw	a3,0(sp)
    2332:	04000737          	lui	a4,0x4000
    2336:	8f55                	or	a4,a4,a3
    2338:	c03a                	sw	a4,0(sp)
    233a:	bf41                	j	22ca <__addsf3+0x292>
    233c:	4782                	lw	a5,0(sp)
    233e:	979e                	add	a5,a5,t2
    2340:	b5ad                	j	21aa <__addsf3+0x172>
    2342:	833a                	mv	t1,a4
    2344:	8432                	mv	s0,a2
    2346:	84ae                	mv	s1,a1
    2348:	bf31                	j	2264 <__addsf3+0x22c>
    234a:	00331793          	slli	a5,t1,0x3
    234e:	ea078fe3          	beqz	a5,220c <__addsf3+0x1d4>
    2352:	e80387e3          	beqz	t2,21e0 <__addsf3+0x1a8>
    2356:	b579                	j	21e4 <__addsf3+0x1ac>
    2358:	04038363          	beqz	t2,239e <__addsf3+0x366>
    235c:	852e                	mv	a0,a1
    235e:	87ba                	mv	a5,a4
    2360:	b3e1                	j	2128 <__addsf3+0xf0>
    2362:	4782                	lw	a5,0(sp)
    2364:	407787b3          	sub	a5,a5,t2
    2368:	b3b9                	j	20b6 <__addsf3+0x7e>
    236a:	0ff00793          	li	a5,255
    236e:	f0f407e3          	beq	s0,a5,227c <__addsf3+0x244>
    2372:	4782                	lw	a5,0(sp)
    2374:	979e                	add	a5,a5,t2
    2376:	8385                	srli	a5,a5,0x1
    2378:	b5c5                	j	2258 <__addsf3+0x220>
    237a:	00331793          	slli	a5,t1,0x3
    237e:	fbf1                	bnez	a5,2352 <__addsf3+0x31a>
    2380:	e60382e3          	beqz	t2,21e4 <__addsf3+0x1ac>
    2384:	84ae                	mv	s1,a1
    2386:	b559                	j	220c <__addsf3+0x1d4>
    2388:	4782                	lw	a5,0(sp)
    238a:	84ae                	mv	s1,a1
    238c:	40f387b3          	sub	a5,t2,a5
    2390:	bb25                	j	20c8 <__addsf3+0x90>
    2392:	4785                	li	a5,1
    2394:	bd09                	j	21a6 <__addsf3+0x16e>
    2396:	4785                	li	a5,1
    2398:	b749                	j	231a <__addsf3+0x2e2>
    239a:	ea079fe3          	bnez	a5,2258 <__addsf3+0x220>
    239e:	4501                	li	a0,0
    23a0:	4781                	li	a5,0
    23a2:	b359                	j	2128 <__addsf3+0xf0>
    23a4:	40d387b3          	sub	a5,t2,a3
    23a8:	8432                	mv	s0,a2
    23aa:	84ae                	mv	s1,a1
    23ac:	b329                	j	20b6 <__addsf3+0x7e>
    23ae:	87ba                	mv	a5,a4
    23b0:	bba5                	j	2128 <__addsf3+0xf0>
    23b2:	833a                	mv	t1,a4
    23b4:	8432                	mv	s0,a2
    23b6:	b57d                	j	2264 <__addsf3+0x22c>
    23b8:	4785                	li	a5,1
    23ba:	b735                	j	22e6 <__addsf3+0x2ae>
    23bc:	007687b3          	add	a5,a3,t2
    23c0:	8432                	mv	s0,a2
    23c2:	b3e5                	j	21aa <__addsf3+0x172>

000023c4 <__divsf3>:
    23c4:	fdc10113          	addi	sp,sp,-36
    23c8:	01755693          	srli	a3,a0,0x17
    23cc:	cc26                	sw	s1,24(sp)
    23ce:	00951613          	slli	a2,a0,0x9
    23d2:	01f55493          	srli	s1,a0,0x1f
    23d6:	d006                	sw	ra,32(sp)
    23d8:	ce22                	sw	s0,28(sp)
    23da:	0ff6f693          	andi	a3,a3,255
    23de:	8225                	srli	a2,a2,0x9
    23e0:	82a6                	mv	t0,s1
    23e2:	10068b63          	beqz	a3,24f8 <__divsf3+0x134>
    23e6:	0ff00793          	li	a5,255
    23ea:	10f68c63          	beq	a3,a5,2502 <__divsf3+0x13e>
    23ee:	060e                	slli	a2,a2,0x3
    23f0:	040007b7          	lui	a5,0x4000
    23f4:	8e5d                	or	a2,a2,a5
    23f6:	f8168693          	addi	a3,a3,-127 # 7dffff81 <__global_pointer$+0x5dfff749>
    23fa:	4401                	li	s0,0
    23fc:	4381                	li	t2,0
    23fe:	0175d793          	srli	a5,a1,0x17
    2402:	00959313          	slli	t1,a1,0x9
    2406:	0ff7f793          	andi	a5,a5,255
    240a:	00935313          	srli	t1,t1,0x9
    240e:	81fd                	srli	a1,a1,0x1f
    2410:	c3e5                	beqz	a5,24f0 <__divsf3+0x12c>
    2412:	0ff00713          	li	a4,255
    2416:	02e78663          	beq	a5,a4,2442 <__divsf3+0x7e>
    241a:	f8178793          	addi	a5,a5,-127 # 3ffff81 <_data_lma+0x3ffc839>
    241e:	030e                	slli	t1,t1,0x3
    2420:	04000737          	lui	a4,0x4000
    2424:	8e9d                	sub	a3,a3,a5
    2426:	00e36333          	or	t1,t1,a4
    242a:	4781                	li	a5,0
    242c:	8c5d                	or	s0,s0,a5
    242e:	00001517          	auipc	a0,0x1
    2432:	15a50513          	addi	a0,a0,346 # 3588 <PAIRING_ADDR+0x59c>
    2436:	040a                	slli	s0,s0,0x2
    2438:	942a                	add	s0,s0,a0
    243a:	4000                	lw	s0,0(s0)
    243c:	8cad                	xor	s1,s1,a1
    243e:	9522                	add	a0,a0,s0
    2440:	8502                	jr	a0
    2442:	f0168693          	addi	a3,a3,-255
    2446:	0c031463          	bnez	t1,250e <__divsf3+0x14a>
    244a:	4789                	li	a5,2
    244c:	8c5d                	or	s0,s0,a5
    244e:	00001517          	auipc	a0,0x1
    2452:	17a50513          	addi	a0,a0,378 # 35c8 <PAIRING_ADDR+0x5dc>
    2456:	040a                	slli	s0,s0,0x2
    2458:	942a                	add	s0,s0,a0
    245a:	00042303          	lw	t1,0(s0)
    245e:	8cad                	xor	s1,s1,a1
    2460:	951a                	add	a0,a0,t1
    2462:	8502                	jr	a0
    2464:	4481                	li	s1,0
    2466:	0ff00593          	li	a1,255
    246a:	004007b7          	lui	a5,0x400
    246e:	00979513          	slli	a0,a5,0x9
    2472:	5082                	lw	ra,32(sp)
    2474:	4472                	lw	s0,28(sp)
    2476:	01759793          	slli	a5,a1,0x17
    247a:	8125                	srli	a0,a0,0x9
    247c:	04fe                	slli	s1,s1,0x1f
    247e:	8d5d                	or	a0,a0,a5
    2480:	8d45                	or	a0,a0,s1
    2482:	44e2                	lw	s1,24(sp)
    2484:	02410113          	addi	sp,sp,36
    2488:	8082                	ret
    248a:	0ff00593          	li	a1,255
    248e:	4781                	li	a5,0
    2490:	bff9                	j	246e <__divsf3+0xaa>
    2492:	861a                	mv	a2,t1
    2494:	82ae                	mv	t0,a1
    2496:	83be                	mv	t2,a5
    2498:	4789                	li	a5,2
    249a:	22f38663          	beq	t2,a5,26c6 <__divsf3+0x302>
    249e:	478d                	li	a5,3
    24a0:	fcf382e3          	beq	t2,a5,2464 <__divsf3+0xa0>
    24a4:	4785                	li	a5,1
    24a6:	0cf38663          	beq	t2,a5,2572 <__divsf3+0x1ae>
    24aa:	07f68593          	addi	a1,a3,127
    24ae:	0012f493          	andi	s1,t0,1
    24b2:	18b05863          	blez	a1,2642 <__divsf3+0x27e>
    24b6:	00767793          	andi	a5,a2,7
    24ba:	c799                	beqz	a5,24c8 <__divsf3+0x104>
    24bc:	00f67793          	andi	a5,a2,15
    24c0:	4511                	li	a0,4
    24c2:	00a78363          	beq	a5,a0,24c8 <__divsf3+0x104>
    24c6:	0611                	addi	a2,a2,4
    24c8:	00461793          	slli	a5,a2,0x4
    24cc:	0007d863          	bgez	a5,24dc <__divsf3+0x118>
    24d0:	f80007b7          	lui	a5,0xf8000
    24d4:	17fd                	addi	a5,a5,-1
    24d6:	8e7d                	and	a2,a2,a5
    24d8:	08068593          	addi	a1,a3,128
    24dc:	0fe00793          	li	a5,254
    24e0:	fab7c5e3          	blt	a5,a1,248a <__divsf3+0xc6>
    24e4:	00661793          	slli	a5,a2,0x6
    24e8:	83a5                	srli	a5,a5,0x9
    24ea:	0ff5f593          	andi	a1,a1,255
    24ee:	b741                	j	246e <__divsf3+0xaa>
    24f0:	04031963          	bnez	t1,2542 <__divsf3+0x17e>
    24f4:	4785                	li	a5,1
    24f6:	bf99                	j	244c <__divsf3+0x88>
    24f8:	e215                	bnez	a2,251c <__divsf3+0x158>
    24fa:	4411                	li	s0,4
    24fc:	4681                	li	a3,0
    24fe:	4385                	li	t2,1
    2500:	bdfd                	j	23fe <__divsf3+0x3a>
    2502:	ea01                	bnez	a2,2512 <__divsf3+0x14e>
    2504:	4421                	li	s0,8
    2506:	0ff00693          	li	a3,255
    250a:	4389                	li	t2,2
    250c:	bdcd                	j	23fe <__divsf3+0x3a>
    250e:	478d                	li	a5,3
    2510:	bf31                	j	242c <__divsf3+0x68>
    2512:	4431                	li	s0,12
    2514:	0ff00693          	li	a3,255
    2518:	438d                	li	t2,3
    251a:	b5d5                	j	23fe <__divsf3+0x3a>
    251c:	8532                	mv	a0,a2
    251e:	c42e                	sw	a1,8(sp)
    2520:	c032                	sw	a2,0(sp)
    2522:	c226                	sw	s1,4(sp)
    2524:	25b000ef          	jal	ra,2f7e <__clzsi2>
    2528:	4602                	lw	a2,0(sp)
    252a:	ffb50793          	addi	a5,a0,-5
    252e:	f8a00693          	li	a3,-118
    2532:	00f61633          	sll	a2,a2,a5
    2536:	8e89                	sub	a3,a3,a0
    2538:	4401                	li	s0,0
    253a:	4381                	li	t2,0
    253c:	4292                	lw	t0,4(sp)
    253e:	45a2                	lw	a1,8(sp)
    2540:	bd7d                	j	23fe <__divsf3+0x3a>
    2542:	851a                	mv	a0,t1
    2544:	ca36                	sw	a3,20(sp)
    2546:	c816                	sw	t0,16(sp)
    2548:	c632                	sw	a2,12(sp)
    254a:	c41e                	sw	t2,8(sp)
    254c:	c22e                	sw	a1,4(sp)
    254e:	c01a                	sw	t1,0(sp)
    2550:	22f000ef          	jal	ra,2f7e <__clzsi2>
    2554:	46d2                	lw	a3,20(sp)
    2556:	4302                	lw	t1,0(sp)
    2558:	ffb50793          	addi	a5,a0,-5
    255c:	96aa                	add	a3,a3,a0
    255e:	00f31333          	sll	t1,t1,a5
    2562:	07668693          	addi	a3,a3,118
    2566:	4781                	li	a5,0
    2568:	4592                	lw	a1,4(sp)
    256a:	43a2                	lw	t2,8(sp)
    256c:	4632                	lw	a2,12(sp)
    256e:	42c2                	lw	t0,16(sp)
    2570:	bd75                	j	242c <__divsf3+0x68>
    2572:	0012f493          	andi	s1,t0,1
    2576:	4581                	li	a1,0
    2578:	4781                	li	a5,0
    257a:	bdd5                	j	246e <__divsf3+0xaa>
    257c:	67c1                	lui	a5,0x10
    257e:	00531713          	slli	a4,t1,0x5
    2582:	17fd                	addi	a5,a5,-1
    2584:	8ff9                	and	a5,a5,a4
    2586:	ca3a                	sw	a4,20(sp)
    2588:	c23e                	sw	a5,4(sp)
    258a:	01075413          	srli	s0,a4,0x10
    258e:	0e667d63          	bgeu	a2,t1,2688 <__divsf3+0x2c4>
    2592:	8532                	mv	a0,a2
    2594:	85a2                	mv	a1,s0
    2596:	c636                	sw	a3,12(sp)
    2598:	c432                	sw	a2,8(sp)
    259a:	b47fd0ef          	jal	ra,e0 <__udivsi3>
    259e:	4592                	lw	a1,4(sp)
    25a0:	c02a                	sw	a0,0(sp)
    25a2:	b1ffd0ef          	jal	ra,c0 <__mulsi3>
    25a6:	4622                	lw	a2,8(sp)
    25a8:	46b2                	lw	a3,12(sp)
    25aa:	87aa                	mv	a5,a0
    25ac:	8332                	mv	t1,a2
    25ae:	16fd                	addi	a3,a3,-1
    25b0:	4601                	li	a2,0
    25b2:	85a2                	mv	a1,s0
    25b4:	851a                	mv	a0,t1
    25b6:	c836                	sw	a3,16(sp)
    25b8:	c63e                	sw	a5,12(sp)
    25ba:	c432                	sw	a2,8(sp)
    25bc:	b51fd0ef          	jal	ra,10c <__umodsi3>
    25c0:	4622                	lw	a2,8(sp)
    25c2:	47b2                	lw	a5,12(sp)
    25c4:	0542                	slli	a0,a0,0x10
    25c6:	8d51                	or	a0,a0,a2
    25c8:	46c2                	lw	a3,16(sp)
    25ca:	00f57f63          	bgeu	a0,a5,25e8 <__divsf3+0x224>
    25ce:	4752                	lw	a4,20(sp)
    25d0:	4582                	lw	a1,0(sp)
    25d2:	953a                	add	a0,a0,a4
    25d4:	fff58613          	addi	a2,a1,-1
    25d8:	0ee56263          	bltu	a0,a4,26bc <__divsf3+0x2f8>
    25dc:	0ef57063          	bgeu	a0,a5,26bc <__divsf3+0x2f8>
    25e0:	ffe58613          	addi	a2,a1,-2
    25e4:	c032                	sw	a2,0(sp)
    25e6:	953a                	add	a0,a0,a4
    25e8:	40f507b3          	sub	a5,a0,a5
    25ec:	853e                	mv	a0,a5
    25ee:	85a2                	mv	a1,s0
    25f0:	c836                	sw	a3,16(sp)
    25f2:	c63e                	sw	a5,12(sp)
    25f4:	aedfd0ef          	jal	ra,e0 <__udivsi3>
    25f8:	4592                	lw	a1,4(sp)
    25fa:	c42a                	sw	a0,8(sp)
    25fc:	ac5fd0ef          	jal	ra,c0 <__mulsi3>
    2600:	47b2                	lw	a5,12(sp)
    2602:	c22a                	sw	a0,4(sp)
    2604:	85a2                	mv	a1,s0
    2606:	853e                	mv	a0,a5
    2608:	b05fd0ef          	jal	ra,10c <__umodsi3>
    260c:	4612                	lw	a2,4(sp)
    260e:	0542                	slli	a0,a0,0x10
    2610:	4322                	lw	t1,8(sp)
    2612:	46c2                	lw	a3,16(sp)
    2614:	00c57c63          	bgeu	a0,a2,262c <__divsf3+0x268>
    2618:	4752                	lw	a4,20(sp)
    261a:	fff30793          	addi	a5,t1,-1 # fbffffff <__global_pointer$+0xdbfff7c7>
    261e:	953a                	add	a0,a0,a4
    2620:	08e56c63          	bltu	a0,a4,26b8 <__divsf3+0x2f4>
    2624:	08c57a63          	bgeu	a0,a2,26b8 <__divsf3+0x2f4>
    2628:	1379                	addi	t1,t1,-2
    262a:	953a                	add	a0,a0,a4
    262c:	4782                	lw	a5,0(sp)
    262e:	40c50633          	sub	a2,a0,a2
    2632:	00c03633          	snez	a2,a2
    2636:	07c2                	slli	a5,a5,0x10
    2638:	0067e7b3          	or	a5,a5,t1
    263c:	8e5d                	or	a2,a2,a5
    263e:	82a6                	mv	t0,s1
    2640:	b5ad                	j	24aa <__divsf3+0xe6>
    2642:	4305                	li	t1,1
    2644:	40b30333          	sub	t1,t1,a1
    2648:	c591                	beqz	a1,2654 <__divsf3+0x290>
    264a:	456d                	li	a0,27
    264c:	4581                	li	a1,0
    264e:	4781                	li	a5,0
    2650:	e0654fe3          	blt	a0,t1,246e <__divsf3+0xaa>
    2654:	09e68693          	addi	a3,a3,158
    2658:	00d616b3          	sll	a3,a2,a3
    265c:	006657b3          	srl	a5,a2,t1
    2660:	00d03633          	snez	a2,a3
    2664:	8fd1                	or	a5,a5,a2
    2666:	0077f693          	andi	a3,a5,7
    266a:	c699                	beqz	a3,2678 <__divsf3+0x2b4>
    266c:	00f7f693          	andi	a3,a5,15
    2670:	4611                	li	a2,4
    2672:	00c68363          	beq	a3,a2,2678 <__divsf3+0x2b4>
    2676:	0791                	addi	a5,a5,4
    2678:	00579713          	slli	a4,a5,0x5
    267c:	04074263          	bltz	a4,26c0 <__divsf3+0x2fc>
    2680:	079a                	slli	a5,a5,0x6
    2682:	83a5                	srli	a5,a5,0x9
    2684:	4581                	li	a1,0
    2686:	b3e5                	j	246e <__divsf3+0xaa>
    2688:	00165313          	srli	t1,a2,0x1
    268c:	851a                	mv	a0,t1
    268e:	85a2                	mv	a1,s0
    2690:	c836                	sw	a3,16(sp)
    2692:	c632                	sw	a2,12(sp)
    2694:	c41a                	sw	t1,8(sp)
    2696:	a4bfd0ef          	jal	ra,e0 <__udivsi3>
    269a:	4592                	lw	a1,4(sp)
    269c:	c02a                	sw	a0,0(sp)
    269e:	a23fd0ef          	jal	ra,c0 <__mulsi3>
    26a2:	4632                	lw	a2,12(sp)
    26a4:	87aa                	mv	a5,a0
    26a6:	46c2                	lw	a3,16(sp)
    26a8:	067e                	slli	a2,a2,0x1f
    26aa:	8241                	srli	a2,a2,0x10
    26ac:	4322                	lw	t1,8(sp)
    26ae:	b711                	j	25b2 <__divsf3+0x1ee>
    26b0:	82ae                	mv	t0,a1
    26b2:	83be                	mv	t2,a5
    26b4:	4601                	li	a2,0
    26b6:	b3cd                	j	2498 <__divsf3+0xd4>
    26b8:	833e                	mv	t1,a5
    26ba:	bf8d                	j	262c <__divsf3+0x268>
    26bc:	c032                	sw	a2,0(sp)
    26be:	b72d                	j	25e8 <__divsf3+0x224>
    26c0:	4585                	li	a1,1
    26c2:	4781                	li	a5,0
    26c4:	b36d                	j	246e <__divsf3+0xaa>
    26c6:	0012f493          	andi	s1,t0,1
    26ca:	0ff00593          	li	a1,255
    26ce:	4781                	li	a5,0
    26d0:	bb79                	j	246e <__divsf3+0xaa>

000026d2 <__gesf2>:
    26d2:	01755713          	srli	a4,a0,0x17
    26d6:	008007b7          	lui	a5,0x800
    26da:	17fd                	addi	a5,a5,-1
    26dc:	0175d693          	srli	a3,a1,0x17
    26e0:	0ff77713          	andi	a4,a4,255
    26e4:	0ff00293          	li	t0,255
    26e8:	00a7f333          	and	t1,a5,a0
    26ec:	01f55613          	srli	a2,a0,0x1f
    26f0:	8fed                	and	a5,a5,a1
    26f2:	0ff6f693          	andi	a3,a3,255
    26f6:	81fd                	srli	a1,a1,0x1f
    26f8:	02570163          	beq	a4,t0,271a <__gesf2+0x48>
    26fc:	00568c63          	beq	a3,t0,2714 <__gesf2+0x42>
    2700:	e30d                	bnez	a4,2722 <__gesf2+0x50>
    2702:	e291                	bnez	a3,2706 <__gesf2+0x34>
    2704:	c3b1                	beqz	a5,2748 <__gesf2+0x76>
    2706:	02030e63          	beqz	t1,2742 <__gesf2+0x70>
    270a:	04b60563          	beq	a2,a1,2754 <__gesf2+0x82>
    270e:	4505                	li	a0,1
    2710:	e61d                	bnez	a2,273e <__gesf2+0x6c>
    2712:	8082                	ret
    2714:	d7f5                	beqz	a5,2700 <__gesf2+0x2e>
    2716:	5579                	li	a0,-2
    2718:	8082                	ret
    271a:	fe031ee3          	bnez	t1,2716 <__gesf2+0x44>
    271e:	02e68963          	beq	a3,a4,2750 <__gesf2+0x7e>
    2722:	e291                	bnez	a3,2726 <__gesf2+0x54>
    2724:	d7ed                	beqz	a5,270e <__gesf2+0x3c>
    2726:	feb614e3          	bne	a2,a1,270e <__gesf2+0x3c>
    272a:	fee6c2e3          	blt	a3,a4,270e <__gesf2+0x3c>
    272e:	00d74763          	blt	a4,a3,273c <__gesf2+0x6a>
    2732:	fc67eee3          	bltu	a5,t1,270e <__gesf2+0x3c>
    2736:	4501                	li	a0,0
    2738:	fcf37de3          	bgeu	t1,a5,2712 <__gesf2+0x40>
    273c:	e601                	bnez	a2,2744 <__gesf2+0x72>
    273e:	557d                	li	a0,-1
    2740:	8082                	ret
    2742:	ddf5                	beqz	a1,273e <__gesf2+0x6c>
    2744:	4505                	li	a0,1
    2746:	8082                	ret
    2748:	4501                	li	a0,0
    274a:	fc0312e3          	bnez	t1,270e <__gesf2+0x3c>
    274e:	8082                	ret
    2750:	dbf9                	beqz	a5,2726 <__gesf2+0x54>
    2752:	b7d1                	j	2716 <__gesf2+0x44>
    2754:	4701                	li	a4,0
    2756:	bfe1                	j	272e <__gesf2+0x5c>

00002758 <__lesf2>:
    2758:	01755613          	srli	a2,a0,0x17
    275c:	008007b7          	lui	a5,0x800
    2760:	17fd                	addi	a5,a5,-1
    2762:	0175d713          	srli	a4,a1,0x17
    2766:	0ff67613          	andi	a2,a2,255
    276a:	0ff00313          	li	t1,255
    276e:	00a7f2b3          	and	t0,a5,a0
    2772:	01f55693          	srli	a3,a0,0x1f
    2776:	8fed                	and	a5,a5,a1
    2778:	0ff77713          	andi	a4,a4,255
    277c:	81fd                	srli	a1,a1,0x1f
    277e:	02660763          	beq	a2,t1,27ac <__lesf2+0x54>
    2782:	00670963          	beq	a4,t1,2794 <__lesf2+0x3c>
    2786:	ea05                	bnez	a2,27b6 <__lesf2+0x5e>
    2788:	eb11                	bnez	a4,279c <__lesf2+0x44>
    278a:	eb89                	bnez	a5,279c <__lesf2+0x44>
    278c:	4501                	li	a0,0
    278e:	00029b63          	bnez	t0,27a4 <__lesf2+0x4c>
    2792:	8082                	ret
    2794:	4509                	li	a0,2
    2796:	fff5                	bnez	a5,2792 <__lesf2+0x3a>
    2798:	da65                	beqz	a2,2788 <__lesf2+0x30>
    279a:	a831                	j	27b6 <__lesf2+0x5e>
    279c:	02028c63          	beqz	t0,27d4 <__lesf2+0x7c>
    27a0:	04b68063          	beq	a3,a1,27e0 <__lesf2+0x88>
    27a4:	4505                	li	a0,1
    27a6:	d6f5                	beqz	a3,2792 <__lesf2+0x3a>
    27a8:	557d                	li	a0,-1
    27aa:	8082                	ret
    27ac:	4509                	li	a0,2
    27ae:	02029863          	bnez	t0,27de <__lesf2+0x86>
    27b2:	02c70463          	beq	a4,a2,27da <__lesf2+0x82>
    27b6:	e311                	bnez	a4,27ba <__lesf2+0x62>
    27b8:	d7f5                	beqz	a5,27a4 <__lesf2+0x4c>
    27ba:	feb695e3          	bne	a3,a1,27a4 <__lesf2+0x4c>
    27be:	fec743e3          	blt	a4,a2,27a4 <__lesf2+0x4c>
    27c2:	00e64763          	blt	a2,a4,27d0 <__lesf2+0x78>
    27c6:	fc57efe3          	bltu	a5,t0,27a4 <__lesf2+0x4c>
    27ca:	4501                	li	a0,0
    27cc:	fcf2f3e3          	bgeu	t0,a5,2792 <__lesf2+0x3a>
    27d0:	e299                	bnez	a3,27d6 <__lesf2+0x7e>
    27d2:	bfd9                	j	27a8 <__lesf2+0x50>
    27d4:	d9f1                	beqz	a1,27a8 <__lesf2+0x50>
    27d6:	4505                	li	a0,1
    27d8:	8082                	ret
    27da:	d3e5                	beqz	a5,27ba <__lesf2+0x62>
    27dc:	8082                	ret
    27de:	8082                	ret
    27e0:	4601                	li	a2,0
    27e2:	b7c5                	j	27c2 <__lesf2+0x6a>

000027e4 <__mulsf3>:
    27e4:	1101                	addi	sp,sp,-32
    27e6:	cc22                	sw	s0,24(sp)
    27e8:	01755413          	srli	s0,a0,0x17
    27ec:	ca26                	sw	s1,20(sp)
    27ee:	ce06                	sw	ra,28(sp)
    27f0:	00951493          	slli	s1,a0,0x9
    27f4:	0ff47413          	andi	s0,s0,255
    27f8:	80a5                	srli	s1,s1,0x9
    27fa:	01f55693          	srli	a3,a0,0x1f
    27fe:	cc4d                	beqz	s0,28b8 <__mulsf3+0xd4>
    2800:	0ff00793          	li	a5,255
    2804:	0cf40c63          	beq	s0,a5,28dc <__mulsf3+0xf8>
    2808:	040007b7          	lui	a5,0x4000
    280c:	048e                	slli	s1,s1,0x3
    280e:	8cdd                	or	s1,s1,a5
    2810:	f8140413          	addi	s0,s0,-127
    2814:	4781                	li	a5,0
    2816:	4601                	li	a2,0
    2818:	0175d513          	srli	a0,a1,0x17
    281c:	00959713          	slli	a4,a1,0x9
    2820:	0ff57513          	andi	a0,a0,255
    2824:	8325                	srli	a4,a4,0x9
    2826:	81fd                	srli	a1,a1,0x1f
    2828:	c54d                	beqz	a0,28d2 <__mulsf3+0xee>
    282a:	0ff00313          	li	t1,255
    282e:	02650d63          	beq	a0,t1,2868 <__mulsf3+0x84>
    2832:	070e                	slli	a4,a4,0x3
    2834:	f8150513          	addi	a0,a0,-127
    2838:	04000337          	lui	t1,0x4000
    283c:	00676733          	or	a4,a4,t1
    2840:	942a                	add	s0,s0,a0
    2842:	4381                	li	t2,0
    2844:	00140513          	addi	a0,s0,1
    2848:	00b6c333          	xor	t1,a3,a1
    284c:	c02a                	sw	a0,0(sp)
    284e:	453d                	li	a0,15
    2850:	829a                	mv	t0,t1
    2852:	10f56263          	bltu	a0,a5,2956 <__mulsf3+0x172>
    2856:	00001517          	auipc	a0,0x1
    285a:	db250513          	addi	a0,a0,-590 # 3608 <PAIRING_ADDR+0x61c>
    285e:	078a                	slli	a5,a5,0x2
    2860:	97aa                	add	a5,a5,a0
    2862:	439c                	lw	a5,0(a5)
    2864:	953e                	add	a0,a0,a5
    2866:	8502                	jr	a0
    2868:	0ff40413          	addi	s0,s0,255
    286c:	eb61                	bnez	a4,293c <__mulsf3+0x158>
    286e:	0027e793          	ori	a5,a5,2
    2872:	4389                	li	t2,2
    2874:	bfc1                	j	2844 <__mulsf3+0x60>
    2876:	4301                	li	t1,0
    2878:	0ff00713          	li	a4,255
    287c:	004007b7          	lui	a5,0x400
    2880:	40f2                	lw	ra,28(sp)
    2882:	4462                	lw	s0,24(sp)
    2884:	07a6                	slli	a5,a5,0x9
    2886:	075e                	slli	a4,a4,0x17
    2888:	83a5                	srli	a5,a5,0x9
    288a:	01f31513          	slli	a0,t1,0x1f
    288e:	8fd9                	or	a5,a5,a4
    2890:	44d2                	lw	s1,20(sp)
    2892:	8d5d                	or	a0,a0,a5
    2894:	6105                	addi	sp,sp,32
    2896:	8082                	ret
    2898:	82ae                	mv	t0,a1
    289a:	84ba                	mv	s1,a4
    289c:	861e                	mv	a2,t2
    289e:	4789                	li	a5,2
    28a0:	0af60663          	beq	a2,a5,294c <__mulsf3+0x168>
    28a4:	478d                	li	a5,3
    28a6:	fcf608e3          	beq	a2,a5,2876 <__mulsf3+0x92>
    28aa:	4785                	li	a5,1
    28ac:	8316                	mv	t1,t0
    28ae:	1af61e63          	bne	a2,a5,2a6a <__mulsf3+0x286>
    28b2:	4701                	li	a4,0
    28b4:	4781                	li	a5,0
    28b6:	b7e9                	j	2880 <__mulsf3+0x9c>
    28b8:	e0b5                	bnez	s1,291c <__mulsf3+0x138>
    28ba:	0175d513          	srli	a0,a1,0x17
    28be:	00959713          	slli	a4,a1,0x9
    28c2:	0ff57513          	andi	a0,a0,255
    28c6:	4791                	li	a5,4
    28c8:	4401                	li	s0,0
    28ca:	4605                	li	a2,1
    28cc:	8325                	srli	a4,a4,0x9
    28ce:	81fd                	srli	a1,a1,0x1f
    28d0:	fd29                	bnez	a0,282a <__mulsf3+0x46>
    28d2:	eb19                	bnez	a4,28e8 <__mulsf3+0x104>
    28d4:	0017e793          	ori	a5,a5,1
    28d8:	4385                	li	t2,1
    28da:	b7ad                	j	2844 <__mulsf3+0x60>
    28dc:	e89d                	bnez	s1,2912 <__mulsf3+0x12e>
    28de:	47a1                	li	a5,8
    28e0:	0ff00413          	li	s0,255
    28e4:	4609                	li	a2,2
    28e6:	bf0d                	j	2818 <__mulsf3+0x34>
    28e8:	853a                	mv	a0,a4
    28ea:	c832                	sw	a2,16(sp)
    28ec:	c63e                	sw	a5,12(sp)
    28ee:	c42e                	sw	a1,8(sp)
    28f0:	c236                	sw	a3,4(sp)
    28f2:	c03a                	sw	a4,0(sp)
    28f4:	2569                	jal	2f7e <__clzsi2>
    28f6:	4702                	lw	a4,0(sp)
    28f8:	ffb50313          	addi	t1,a0,-5
    28fc:	8c09                	sub	s0,s0,a0
    28fe:	00671733          	sll	a4,a4,t1
    2902:	f8a40413          	addi	s0,s0,-118
    2906:	4381                	li	t2,0
    2908:	4692                	lw	a3,4(sp)
    290a:	45a2                	lw	a1,8(sp)
    290c:	47b2                	lw	a5,12(sp)
    290e:	4642                	lw	a2,16(sp)
    2910:	bf15                	j	2844 <__mulsf3+0x60>
    2912:	47b1                	li	a5,12
    2914:	0ff00413          	li	s0,255
    2918:	460d                	li	a2,3
    291a:	bdfd                	j	2818 <__mulsf3+0x34>
    291c:	8526                	mv	a0,s1
    291e:	c22e                	sw	a1,4(sp)
    2920:	c036                	sw	a3,0(sp)
    2922:	2db1                	jal	2f7e <__clzsi2>
    2924:	ffb50793          	addi	a5,a0,-5
    2928:	f8a00413          	li	s0,-118
    292c:	00f494b3          	sll	s1,s1,a5
    2930:	8c09                	sub	s0,s0,a0
    2932:	4781                	li	a5,0
    2934:	4601                	li	a2,0
    2936:	4682                	lw	a3,0(sp)
    2938:	4592                	lw	a1,4(sp)
    293a:	bdf9                	j	2818 <__mulsf3+0x34>
    293c:	0037e793          	ori	a5,a5,3
    2940:	438d                	li	t2,3
    2942:	b709                	j	2844 <__mulsf3+0x60>
    2944:	4789                	li	a5,2
    2946:	82b6                	mv	t0,a3
    2948:	f4f61ee3          	bne	a2,a5,28a4 <__mulsf3+0xc0>
    294c:	8316                	mv	t1,t0
    294e:	0ff00713          	li	a4,255
    2952:	4781                	li	a5,0
    2954:	b735                	j	2880 <__mulsf3+0x9c>
    2956:	67c1                	lui	a5,0x10
    2958:	17fd                	addi	a5,a5,-1
    295a:	00f4f3b3          	and	t2,s1,a5
    295e:	8ff9                	and	a5,a5,a4
    2960:	80c1                	srli	s1,s1,0x10
    2962:	8341                	srli	a4,a4,0x10
    2964:	851e                	mv	a0,t2
    2966:	85be                	mv	a1,a5
    2968:	f58fd0ef          	jal	ra,c0 <__mulsi3>
    296c:	82aa                	mv	t0,a0
    296e:	85ba                	mv	a1,a4
    2970:	851e                	mv	a0,t2
    2972:	f4efd0ef          	jal	ra,c0 <__mulsi3>
    2976:	83aa                	mv	t2,a0
    2978:	85be                	mv	a1,a5
    297a:	8526                	mv	a0,s1
    297c:	f44fd0ef          	jal	ra,c0 <__mulsi3>
    2980:	87aa                	mv	a5,a0
    2982:	85ba                	mv	a1,a4
    2984:	8526                	mv	a0,s1
    2986:	f3afd0ef          	jal	ra,c0 <__mulsi3>
    298a:	0102d713          	srli	a4,t0,0x10
    298e:	93be                	add	t2,t2,a5
    2990:	93ba                	add	t2,t2,a4
    2992:	00f3f463          	bgeu	t2,a5,299a <__mulsf3+0x1b6>
    2996:	67c1                	lui	a5,0x10
    2998:	953e                	add	a0,a0,a5
    299a:	67c1                	lui	a5,0x10
    299c:	17fd                	addi	a5,a5,-1
    299e:	00f3f4b3          	and	s1,t2,a5
    29a2:	04c2                	slli	s1,s1,0x10
    29a4:	00f2f2b3          	and	t0,t0,a5
    29a8:	92a6                	add	t0,t0,s1
    29aa:	00629493          	slli	s1,t0,0x6
    29ae:	0103d393          	srli	t2,t2,0x10
    29b2:	009034b3          	snez	s1,s1
    29b6:	01a2d293          	srli	t0,t0,0x1a
    29ba:	93aa                	add	t2,t2,a0
    29bc:	0054e2b3          	or	t0,s1,t0
    29c0:	00639493          	slli	s1,t2,0x6
    29c4:	0054e4b3          	or	s1,s1,t0
    29c8:	00449793          	slli	a5,s1,0x4
    29cc:	0007d763          	bgez	a5,29da <__mulsf3+0x1f6>
    29d0:	4402                	lw	s0,0(sp)
    29d2:	0014d793          	srli	a5,s1,0x1
    29d6:	8885                	andi	s1,s1,1
    29d8:	8cdd                	or	s1,s1,a5
    29da:	07f40713          	addi	a4,s0,127
    29de:	02e05f63          	blez	a4,2a1c <__mulsf3+0x238>
    29e2:	0074f793          	andi	a5,s1,7
    29e6:	c799                	beqz	a5,29f4 <__mulsf3+0x210>
    29e8:	00f4f793          	andi	a5,s1,15
    29ec:	4691                	li	a3,4
    29ee:	00d78363          	beq	a5,a3,29f4 <__mulsf3+0x210>
    29f2:	0491                	addi	s1,s1,4
    29f4:	00449793          	slli	a5,s1,0x4
    29f8:	0007d863          	bgez	a5,2a08 <__mulsf3+0x224>
    29fc:	f80007b7          	lui	a5,0xf8000
    2a00:	17fd                	addi	a5,a5,-1
    2a02:	8cfd                	and	s1,s1,a5
    2a04:	08040713          	addi	a4,s0,128
    2a08:	0fe00793          	li	a5,254
    2a0c:	04e7cb63          	blt	a5,a4,2a62 <__mulsf3+0x27e>
    2a10:	00649793          	slli	a5,s1,0x6
    2a14:	83a5                	srli	a5,a5,0x9
    2a16:	0ff77713          	andi	a4,a4,255
    2a1a:	b59d                	j	2880 <__mulsf3+0x9c>
    2a1c:	4785                	li	a5,1
    2a1e:	40e786b3          	sub	a3,a5,a4
    2a22:	c711                	beqz	a4,2a2e <__mulsf3+0x24a>
    2a24:	466d                	li	a2,27
    2a26:	4701                	li	a4,0
    2a28:	4781                	li	a5,0
    2a2a:	e4d64be3          	blt	a2,a3,2880 <__mulsf3+0x9c>
    2a2e:	09e40413          	addi	s0,s0,158
    2a32:	00849433          	sll	s0,s1,s0
    2a36:	00d4d7b3          	srl	a5,s1,a3
    2a3a:	008034b3          	snez	s1,s0
    2a3e:	8fc5                	or	a5,a5,s1
    2a40:	0077f713          	andi	a4,a5,7
    2a44:	c719                	beqz	a4,2a52 <__mulsf3+0x26e>
    2a46:	00f7f713          	andi	a4,a5,15
    2a4a:	4691                	li	a3,4
    2a4c:	00d70363          	beq	a4,a3,2a52 <__mulsf3+0x26e>
    2a50:	0791                	addi	a5,a5,4
    2a52:	00579713          	slli	a4,a5,0x5
    2a56:	00074c63          	bltz	a4,2a6e <__mulsf3+0x28a>
    2a5a:	079a                	slli	a5,a5,0x6
    2a5c:	83a5                	srli	a5,a5,0x9
    2a5e:	4701                	li	a4,0
    2a60:	b505                	j	2880 <__mulsf3+0x9c>
    2a62:	0ff00713          	li	a4,255
    2a66:	4781                	li	a5,0
    2a68:	bd21                	j	2880 <__mulsf3+0x9c>
    2a6a:	4402                	lw	s0,0(sp)
    2a6c:	b7bd                	j	29da <__mulsf3+0x1f6>
    2a6e:	4705                	li	a4,1
    2a70:	4781                	li	a5,0
    2a72:	b539                	j	2880 <__mulsf3+0x9c>

00002a74 <__subsf3>:
    2a74:	008006b7          	lui	a3,0x800
    2a78:	16fd                	addi	a3,a3,-1
    2a7a:	1131                	addi	sp,sp,-20
    2a7c:	00a6f7b3          	and	a5,a3,a0
    2a80:	01755713          	srli	a4,a0,0x17
    2a84:	0175d613          	srli	a2,a1,0x17
    2a88:	817d                	srli	a0,a0,0x1f
    2a8a:	0ff77713          	andi	a4,a4,255
    2a8e:	8eed                	and	a3,a3,a1
    2a90:	c622                	sw	s0,12(sp)
    2a92:	c426                	sw	s1,8(sp)
    2a94:	0ff67613          	andi	a2,a2,255
    2a98:	c806                	sw	ra,16(sp)
    2a9a:	0ff00393          	li	t2,255
    2a9e:	c23e                	sw	a5,4(sp)
    2aa0:	c02a                	sw	a0,0(sp)
    2aa2:	843a                	mv	s0,a4
    2aa4:	00379493          	slli	s1,a5,0x3
    2aa8:	81fd                	srli	a1,a1,0x1f
    2aaa:	00369293          	slli	t0,a3,0x3
    2aae:	40c70333          	sub	t1,a4,a2
    2ab2:	10760363          	beq	a2,t2,2bb8 <__subsf3+0x144>
    2ab6:	0015c593          	xori	a1,a1,1
    2aba:	10b50e63          	beq	a0,a1,2bd6 <__subsf3+0x162>
    2abe:	0c605463          	blez	t1,2b86 <__subsf3+0x112>
    2ac2:	10061163          	bnez	a2,2bc4 <__subsf3+0x150>
    2ac6:	1e028863          	beqz	t0,2cb6 <__subsf3+0x242>
    2aca:	137d                	addi	t1,t1,-1
    2acc:	405487b3          	sub	a5,s1,t0
    2ad0:	02030763          	beqz	t1,2afe <__subsf3+0x8a>
    2ad4:	0ff00793          	li	a5,255
    2ad8:	16f70b63          	beq	a4,a5,2c4e <__subsf3+0x1da>
    2adc:	47ed                	li	a5,27
    2ade:	2867ca63          	blt	a5,t1,2d72 <__subsf3+0x2fe>
    2ae2:	02000793          	li	a5,32
    2ae6:	406787b3          	sub	a5,a5,t1
    2aea:	00f297b3          	sll	a5,t0,a5
    2aee:	0062d333          	srl	t1,t0,t1
    2af2:	00f037b3          	snez	a5,a5
    2af6:	00f367b3          	or	a5,t1,a5
    2afa:	40f487b3          	sub	a5,s1,a5
    2afe:	00579713          	slli	a4,a5,0x5
    2b02:	1a075463          	bgez	a4,2caa <__subsf3+0x236>
    2b06:	040004b7          	lui	s1,0x4000
    2b0a:	14fd                	addi	s1,s1,-1
    2b0c:	8fe5                	and	a5,a5,s1
    2b0e:	853e                	mv	a0,a5
    2b10:	c23e                	sw	a5,4(sp)
    2b12:	21b5                	jal	2f7e <__clzsi2>
    2b14:	4792                	lw	a5,4(sp)
    2b16:	156d                	addi	a0,a0,-5
    2b18:	00a797b3          	sll	a5,a5,a0
    2b1c:	1c854163          	blt	a0,s0,2cde <__subsf3+0x26a>
    2b20:	8d01                	sub	a0,a0,s0
    2b22:	0505                	addi	a0,a0,1
    2b24:	02000293          	li	t0,32
    2b28:	40a282b3          	sub	t0,t0,a0
    2b2c:	005792b3          	sll	t0,a5,t0
    2b30:	005032b3          	snez	t0,t0
    2b34:	00a7d7b3          	srl	a5,a5,a0
    2b38:	0057e7b3          	or	a5,a5,t0
    2b3c:	4401                	li	s0,0
    2b3e:	0077f713          	andi	a4,a5,7
    2b42:	c719                	beqz	a4,2b50 <__subsf3+0xdc>
    2b44:	00f7f713          	andi	a4,a5,15
    2b48:	4691                	li	a3,4
    2b4a:	00d70363          	beq	a4,a3,2b50 <__subsf3+0xdc>
    2b4e:	0791                	addi	a5,a5,4
    2b50:	00579713          	slli	a4,a5,0x5
    2b54:	14075f63          	bgez	a4,2cb2 <__subsf3+0x23e>
    2b58:	4682                	lw	a3,0(sp)
    2b5a:	0405                	addi	s0,s0,1
    2b5c:	0ff00713          	li	a4,255
    2b60:	0016f513          	andi	a0,a3,1
    2b64:	16e40963          	beq	s0,a4,2cd6 <__subsf3+0x262>
    2b68:	079a                	slli	a5,a5,0x6
    2b6a:	83a5                	srli	a5,a5,0x9
    2b6c:	0ff47713          	andi	a4,s0,255
    2b70:	40c2                	lw	ra,16(sp)
    2b72:	4432                	lw	s0,12(sp)
    2b74:	07a6                	slli	a5,a5,0x9
    2b76:	075e                	slli	a4,a4,0x17
    2b78:	83a5                	srli	a5,a5,0x9
    2b7a:	057e                	slli	a0,a0,0x1f
    2b7c:	8f5d                	or	a4,a4,a5
    2b7e:	44a2                	lw	s1,8(sp)
    2b80:	8d59                	or	a0,a0,a4
    2b82:	0151                	addi	sp,sp,20
    2b84:	8082                	ret
    2b86:	0a031563          	bnez	t1,2c30 <__subsf3+0x1bc>
    2b8a:	00170613          	addi	a2,a4,1 # 4000001 <_data_lma+0x3ffc8b9>
    2b8e:	0fe67613          	andi	a2,a2,254
    2b92:	16061163          	bnez	a2,2cf4 <__subsf3+0x280>
    2b96:	22071363          	bnez	a4,2dbc <__subsf3+0x348>
    2b9a:	20048063          	beqz	s1,2d9a <__subsf3+0x326>
    2b9e:	fc0289e3          	beqz	t0,2b70 <__subsf3+0xfc>
    2ba2:	405487b3          	sub	a5,s1,t0
    2ba6:	00579693          	slli	a3,a5,0x5
    2baa:	2206d263          	bgez	a3,2dce <__subsf3+0x35a>
    2bae:	409287b3          	sub	a5,t0,s1
    2bb2:	4401                	li	s0,0
    2bb4:	c02e                	sw	a1,0(sp)
    2bb6:	b761                	j	2b3e <__subsf3+0xca>
    2bb8:	ee028fe3          	beqz	t0,2ab6 <__subsf3+0x42>
    2bbc:	0ab50d63          	beq	a0,a1,2c76 <__subsf3+0x202>
    2bc0:	fc6053e3          	blez	t1,2b86 <__subsf3+0x112>
    2bc4:	0ff00793          	li	a5,255
    2bc8:	08f70363          	beq	a4,a5,2c4e <__subsf3+0x1da>
    2bcc:	040007b7          	lui	a5,0x4000
    2bd0:	00f2e2b3          	or	t0,t0,a5
    2bd4:	b721                	j	2adc <__subsf3+0x68>
    2bd6:	0a605063          	blez	t1,2c76 <__subsf3+0x202>
    2bda:	c251                	beqz	a2,2c5e <__subsf3+0x1ea>
    2bdc:	0ff00793          	li	a5,255
    2be0:	06f70763          	beq	a4,a5,2c4e <__subsf3+0x1da>
    2be4:	040007b7          	lui	a5,0x4000
    2be8:	00f2e2b3          	or	t0,t0,a5
    2bec:	47ed                	li	a5,27
    2bee:	1c67cc63          	blt	a5,t1,2dc6 <__subsf3+0x352>
    2bf2:	02000793          	li	a5,32
    2bf6:	406787b3          	sub	a5,a5,t1
    2bfa:	00f297b3          	sll	a5,t0,a5
    2bfe:	0062d333          	srl	t1,t0,t1
    2c02:	00f037b3          	snez	a5,a5
    2c06:	00f367b3          	or	a5,t1,a5
    2c0a:	97a6                	add	a5,a5,s1
    2c0c:	00579713          	slli	a4,a5,0x5
    2c10:	08075d63          	bgez	a4,2caa <__subsf3+0x236>
    2c14:	0405                	addi	s0,s0,1
    2c16:	0ff00713          	li	a4,255
    2c1a:	0ae40e63          	beq	s0,a4,2cd6 <__subsf3+0x262>
    2c1e:	7e0006b7          	lui	a3,0x7e000
    2c22:	0017d713          	srli	a4,a5,0x1
    2c26:	16fd                	addi	a3,a3,-1
    2c28:	8b85                	andi	a5,a5,1
    2c2a:	8f75                	and	a4,a4,a3
    2c2c:	8fd9                	or	a5,a5,a4
    2c2e:	bf01                	j	2b3e <__subsf3+0xca>
    2c30:	40e607b3          	sub	a5,a2,a4
    2c34:	10071663          	bnez	a4,2d40 <__subsf3+0x2cc>
    2c38:	14048863          	beqz	s1,2d88 <__subsf3+0x314>
    2c3c:	17fd                	addi	a5,a5,-1
    2c3e:	18078e63          	beqz	a5,2dda <__subsf3+0x366>
    2c42:	0ff00713          	li	a4,255
    2c46:	10e61463          	bne	a2,a4,2d4e <__subsf3+0x2da>
    2c4a:	c02e                	sw	a1,0(sp)
    2c4c:	c236                	sw	a3,4(sp)
    2c4e:	4792                	lw	a5,4(sp)
    2c50:	c3c1                	beqz	a5,2cd0 <__subsf3+0x25c>
    2c52:	4501                	li	a0,0
    2c54:	0ff00713          	li	a4,255
    2c58:	004007b7          	lui	a5,0x400
    2c5c:	bf11                	j	2b70 <__subsf3+0xfc>
    2c5e:	04028c63          	beqz	t0,2cb6 <__subsf3+0x242>
    2c62:	137d                	addi	t1,t1,-1
    2c64:	005487b3          	add	a5,s1,t0
    2c68:	fa0302e3          	beqz	t1,2c0c <__subsf3+0x198>
    2c6c:	0ff00793          	li	a5,255
    2c70:	f6f71ee3          	bne	a4,a5,2bec <__subsf3+0x178>
    2c74:	bfe9                	j	2c4e <__subsf3+0x1da>
    2c76:	08031b63          	bnez	t1,2d0c <__subsf3+0x298>
    2c7a:	00170413          	addi	s0,a4,1
    2c7e:	0fe47613          	andi	a2,s0,254
    2c82:	12061163          	bnez	a2,2da4 <__subsf3+0x330>
    2c86:	10071563          	bnez	a4,2d90 <__subsf3+0x31c>
    2c8a:	14048d63          	beqz	s1,2de4 <__subsf3+0x370>
    2c8e:	ee0281e3          	beqz	t0,2b70 <__subsf3+0xfc>
    2c92:	005487b3          	add	a5,s1,t0
    2c96:	00579713          	slli	a4,a5,0x5
    2c9a:	4401                	li	s0,0
    2c9c:	00075763          	bgez	a4,2caa <__subsf3+0x236>
    2ca0:	fc000737          	lui	a4,0xfc000
    2ca4:	177d                	addi	a4,a4,-1
    2ca6:	8ff9                	and	a5,a5,a4
    2ca8:	4405                	li	s0,1
    2caa:	0077f713          	andi	a4,a5,7
    2cae:	e8071be3          	bnez	a4,2b44 <__subsf3+0xd0>
    2cb2:	838d                	srli	a5,a5,0x3
    2cb4:	c23e                	sw	a5,4(sp)
    2cb6:	0ff00793          	li	a5,255
    2cba:	f8f40ae3          	beq	s0,a5,2c4e <__subsf3+0x1da>
    2cbe:	4792                	lw	a5,4(sp)
    2cc0:	4682                	lw	a3,0(sp)
    2cc2:	0ff47713          	andi	a4,s0,255
    2cc6:	07a6                	slli	a5,a5,0x9
    2cc8:	83a5                	srli	a5,a5,0x9
    2cca:	0016f513          	andi	a0,a3,1
    2cce:	b54d                	j	2b70 <__subsf3+0xfc>
    2cd0:	4782                	lw	a5,0(sp)
    2cd2:	0017f513          	andi	a0,a5,1
    2cd6:	0ff00713          	li	a4,255
    2cda:	4781                	li	a5,0
    2cdc:	bd51                	j	2b70 <__subsf3+0xfc>
    2cde:	fc0002b7          	lui	t0,0xfc000
    2ce2:	12fd                	addi	t0,t0,-1
    2ce4:	0057f7b3          	and	a5,a5,t0
    2ce8:	0077f713          	andi	a4,a5,7
    2cec:	8c09                	sub	s0,s0,a0
    2cee:	e4071be3          	bnez	a4,2b44 <__subsf3+0xd0>
    2cf2:	b7c1                	j	2cb2 <__subsf3+0x23e>
    2cf4:	405487b3          	sub	a5,s1,t0
    2cf8:	00579713          	slli	a4,a5,0x5
    2cfc:	0a074c63          	bltz	a4,2db4 <__subsf3+0x340>
    2d00:	e00797e3          	bnez	a5,2b0e <__subsf3+0x9a>
    2d04:	4501                	li	a0,0
    2d06:	4701                	li	a4,0
    2d08:	4781                	li	a5,0
    2d0a:	b59d                	j	2b70 <__subsf3+0xfc>
    2d0c:	40e607b3          	sub	a5,a2,a4
    2d10:	c33d                	beqz	a4,2d76 <__subsf3+0x302>
    2d12:	0ff00713          	li	a4,255
    2d16:	f2e60be3          	beq	a2,a4,2c4c <__subsf3+0x1d8>
    2d1a:	04000737          	lui	a4,0x4000
    2d1e:	8cd9                	or	s1,s1,a4
    2d20:	476d                	li	a4,27
    2d22:	0cf74663          	blt	a4,a5,2dee <__subsf3+0x37a>
    2d26:	02000713          	li	a4,32
    2d2a:	8f1d                	sub	a4,a4,a5
    2d2c:	00e49733          	sll	a4,s1,a4
    2d30:	00f4d7b3          	srl	a5,s1,a5
    2d34:	00e03733          	snez	a4,a4
    2d38:	8fd9                	or	a5,a5,a4
    2d3a:	9796                	add	a5,a5,t0
    2d3c:	8432                	mv	s0,a2
    2d3e:	b5f9                	j	2c0c <__subsf3+0x198>
    2d40:	0ff00713          	li	a4,255
    2d44:	f0e603e3          	beq	a2,a4,2c4a <__subsf3+0x1d6>
    2d48:	04000737          	lui	a4,0x4000
    2d4c:	8cd9                	or	s1,s1,a4
    2d4e:	476d                	li	a4,27
    2d50:	06f74d63          	blt	a4,a5,2dca <__subsf3+0x356>
    2d54:	02000713          	li	a4,32
    2d58:	8f1d                	sub	a4,a4,a5
    2d5a:	00e49733          	sll	a4,s1,a4
    2d5e:	00f4d7b3          	srl	a5,s1,a5
    2d62:	00e03733          	snez	a4,a4
    2d66:	8fd9                	or	a5,a5,a4
    2d68:	40f287b3          	sub	a5,t0,a5
    2d6c:	8432                	mv	s0,a2
    2d6e:	c02e                	sw	a1,0(sp)
    2d70:	b379                	j	2afe <__subsf3+0x8a>
    2d72:	4785                	li	a5,1
    2d74:	b359                	j	2afa <__subsf3+0x86>
    2d76:	c8ad                	beqz	s1,2de8 <__subsf3+0x374>
    2d78:	17fd                	addi	a5,a5,-1
    2d7a:	cfa5                	beqz	a5,2df2 <__subsf3+0x37e>
    2d7c:	0ff00713          	li	a4,255
    2d80:	fae610e3          	bne	a2,a4,2d20 <__subsf3+0x2ac>
    2d84:	c236                	sw	a3,4(sp)
    2d86:	b5e1                	j	2c4e <__subsf3+0x1da>
    2d88:	c236                	sw	a3,4(sp)
    2d8a:	8432                	mv	s0,a2
    2d8c:	c02e                	sw	a1,0(sp)
    2d8e:	b725                	j	2cb6 <__subsf3+0x242>
    2d90:	ea048ee3          	beqz	s1,2c4c <__subsf3+0x1d8>
    2d94:	ea028de3          	beqz	t0,2c4e <__subsf3+0x1da>
    2d98:	bd6d                	j	2c52 <__subsf3+0x1de>
    2d9a:	02028d63          	beqz	t0,2dd4 <__subsf3+0x360>
    2d9e:	852e                	mv	a0,a1
    2da0:	87b6                	mv	a5,a3
    2da2:	b3f9                	j	2b70 <__subsf3+0xfc>
    2da4:	0ff00793          	li	a5,255
    2da8:	f2f407e3          	beq	s0,a5,2cd6 <__subsf3+0x262>
    2dac:	005487b3          	add	a5,s1,t0
    2db0:	8385                	srli	a5,a5,0x1
    2db2:	bde5                	j	2caa <__subsf3+0x236>
    2db4:	409287b3          	sub	a5,t0,s1
    2db8:	c02e                	sw	a1,0(sp)
    2dba:	bb91                	j	2b0e <__subsf3+0x9a>
    2dbc:	fce1                	bnez	s1,2d94 <__subsf3+0x320>
    2dbe:	e8028ae3          	beqz	t0,2c52 <__subsf3+0x1de>
    2dc2:	c02e                	sw	a1,0(sp)
    2dc4:	b561                	j	2c4c <__subsf3+0x1d8>
    2dc6:	4785                	li	a5,1
    2dc8:	b589                	j	2c0a <__subsf3+0x196>
    2dca:	4785                	li	a5,1
    2dcc:	bf71                	j	2d68 <__subsf3+0x2f4>
    2dce:	4401                	li	s0,0
    2dd0:	ec079de3          	bnez	a5,2caa <__subsf3+0x236>
    2dd4:	4501                	li	a0,0
    2dd6:	4781                	li	a5,0
    2dd8:	bb61                	j	2b70 <__subsf3+0xfc>
    2dda:	409287b3          	sub	a5,t0,s1
    2dde:	8432                	mv	s0,a2
    2de0:	c02e                	sw	a1,0(sp)
    2de2:	bb31                	j	2afe <__subsf3+0x8a>
    2de4:	87b6                	mv	a5,a3
    2de6:	b369                	j	2b70 <__subsf3+0xfc>
    2de8:	c236                	sw	a3,4(sp)
    2dea:	8432                	mv	s0,a2
    2dec:	b5e9                	j	2cb6 <__subsf3+0x242>
    2dee:	4785                	li	a5,1
    2df0:	b7a9                	j	2d3a <__subsf3+0x2c6>
    2df2:	005487b3          	add	a5,s1,t0
    2df6:	8432                	mv	s0,a2
    2df8:	bd11                	j	2c0c <__subsf3+0x198>

00002dfa <__fixsfsi>:
    2dfa:	00800637          	lui	a2,0x800
    2dfe:	01755793          	srli	a5,a0,0x17
    2e02:	fff60713          	addi	a4,a2,-1 # 7fffff <_data_lma+0x7fc8b7>
    2e06:	0ff7f793          	andi	a5,a5,255
    2e0a:	07e00593          	li	a1,126
    2e0e:	8f69                	and	a4,a4,a0
    2e10:	01f55693          	srli	a3,a0,0x1f
    2e14:	00f5fc63          	bgeu	a1,a5,2e2c <__fixsfsi+0x32>
    2e18:	09d00593          	li	a1,157
    2e1c:	00f5fa63          	bgeu	a1,a5,2e30 <__fixsfsi+0x36>
    2e20:	80000537          	lui	a0,0x80000
    2e24:	fff54513          	not	a0,a0
    2e28:	9536                	add	a0,a0,a3
    2e2a:	8082                	ret
    2e2c:	4501                	li	a0,0
    2e2e:	8082                	ret
    2e30:	09500593          	li	a1,149
    2e34:	8f51                	or	a4,a4,a2
    2e36:	00f5cd63          	blt	a1,a5,2e50 <__fixsfsi+0x56>
    2e3a:	09600613          	li	a2,150
    2e3e:	40f607b3          	sub	a5,a2,a5
    2e42:	00f757b3          	srl	a5,a4,a5
    2e46:	40f00533          	neg	a0,a5
    2e4a:	f2f5                	bnez	a3,2e2e <__fixsfsi+0x34>
    2e4c:	853e                	mv	a0,a5
    2e4e:	8082                	ret
    2e50:	f6a78793          	addi	a5,a5,-150 # 3fff6a <_data_lma+0x3fc822>
    2e54:	00f717b3          	sll	a5,a4,a5
    2e58:	b7fd                	j	2e46 <__fixsfsi+0x4c>

00002e5a <__fixunssfsi>:
    2e5a:	01755713          	srli	a4,a0,0x17
    2e5e:	00800637          	lui	a2,0x800
    2e62:	fff60793          	addi	a5,a2,-1 # 7fffff <_data_lma+0x7fc8b7>
    2e66:	0ff77713          	andi	a4,a4,255
    2e6a:	07e00593          	li	a1,126
    2e6e:	00a7f6b3          	and	a3,a5,a0
    2e72:	01f55793          	srli	a5,a0,0x1f
    2e76:	4501                	li	a0,0
    2e78:	00e5f463          	bgeu	a1,a4,2e80 <__fixunssfsi+0x26>
    2e7c:	c399                	beqz	a5,2e82 <__fixunssfsi+0x28>
    2e7e:	8082                	ret
    2e80:	8082                	ret
    2e82:	09e00793          	li	a5,158
    2e86:	557d                	li	a0,-1
    2e88:	fee7ebe3          	bltu	a5,a4,2e7e <__fixunssfsi+0x24>
    2e8c:	09500593          	li	a1,149
    2e90:	00c6e7b3          	or	a5,a3,a2
    2e94:	00e5d763          	bge	a1,a4,2ea2 <__fixunssfsi+0x48>
    2e98:	f6a70713          	addi	a4,a4,-150 # 3ffff6a <_data_lma+0x3ffc822>
    2e9c:	00e79533          	sll	a0,a5,a4
    2ea0:	8082                	ret
    2ea2:	09600513          	li	a0,150
    2ea6:	40e50733          	sub	a4,a0,a4
    2eaa:	00e7d533          	srl	a0,a5,a4
    2eae:	8082                	ret

00002eb0 <__floatunsisf>:
    2eb0:	1151                	addi	sp,sp,-12
    2eb2:	c406                	sw	ra,8(sp)
    2eb4:	c222                	sw	s0,4(sp)
    2eb6:	cd15                	beqz	a0,2ef2 <__floatunsisf+0x42>
    2eb8:	842a                	mv	s0,a0
    2eba:	20d1                	jal	2f7e <__clzsi2>
    2ebc:	09e00793          	li	a5,158
    2ec0:	40a78733          	sub	a4,a5,a0
    2ec4:	09600793          	li	a5,150
    2ec8:	04e7c063          	blt	a5,a4,2f08 <__floatunsisf+0x58>
    2ecc:	46a1                	li	a3,8
    2ece:	0ff77793          	andi	a5,a4,255
    2ed2:	00a6d563          	bge	a3,a0,2edc <__floatunsisf+0x2c>
    2ed6:	1561                	addi	a0,a0,-8
    2ed8:	00a41433          	sll	s0,s0,a0
    2edc:	0426                	slli	s0,s0,0x9
    2ede:	8025                	srli	s0,s0,0x9
    2ee0:	0426                	slli	s0,s0,0x9
    2ee2:	00945513          	srli	a0,s0,0x9
    2ee6:	40a2                	lw	ra,8(sp)
    2ee8:	4412                	lw	s0,4(sp)
    2eea:	07de                	slli	a5,a5,0x17
    2eec:	8d5d                	or	a0,a0,a5
    2eee:	0131                	addi	sp,sp,12
    2ef0:	8082                	ret
    2ef2:	4401                	li	s0,0
    2ef4:	0426                	slli	s0,s0,0x9
    2ef6:	00945513          	srli	a0,s0,0x9
    2efa:	40a2                	lw	ra,8(sp)
    2efc:	4412                	lw	s0,4(sp)
    2efe:	4781                	li	a5,0
    2f00:	07de                	slli	a5,a5,0x17
    2f02:	8d5d                	or	a0,a0,a5
    2f04:	0131                	addi	sp,sp,12
    2f06:	8082                	ret
    2f08:	09900793          	li	a5,153
    2f0c:	00e7dd63          	bge	a5,a4,2f26 <__floatunsisf+0x76>
    2f10:	01b50693          	addi	a3,a0,27 # 8000001b <__global_pointer$+0x5ffff7e3>
    2f14:	4795                	li	a5,5
    2f16:	00d416b3          	sll	a3,s0,a3
    2f1a:	8f89                	sub	a5,a5,a0
    2f1c:	00d036b3          	snez	a3,a3
    2f20:	00f45433          	srl	s0,s0,a5
    2f24:	8c55                	or	s0,s0,a3
    2f26:	4795                	li	a5,5
    2f28:	00a7d663          	bge	a5,a0,2f34 <__floatunsisf+0x84>
    2f2c:	ffb50793          	addi	a5,a0,-5
    2f30:	00f41433          	sll	s0,s0,a5
    2f34:	fc0006b7          	lui	a3,0xfc000
    2f38:	16fd                	addi	a3,a3,-1
    2f3a:	00747793          	andi	a5,s0,7
    2f3e:	00d47633          	and	a2,s0,a3
    2f42:	c385                	beqz	a5,2f62 <__floatunsisf+0xb2>
    2f44:	00f47793          	andi	a5,s0,15
    2f48:	4591                	li	a1,4
    2f4a:	00b78c63          	beq	a5,a1,2f62 <__floatunsisf+0xb2>
    2f4e:	0611                	addi	a2,a2,4
    2f50:	00561793          	slli	a5,a2,0x5
    2f54:	0007d763          	bgez	a5,2f62 <__floatunsisf+0xb2>
    2f58:	09f00793          	li	a5,159
    2f5c:	8e75                	and	a2,a2,a3
    2f5e:	40a78733          	sub	a4,a5,a0
    2f62:	00661413          	slli	s0,a2,0x6
    2f66:	8025                	srli	s0,s0,0x9
    2f68:	0426                	slli	s0,s0,0x9
    2f6a:	00945513          	srli	a0,s0,0x9
    2f6e:	40a2                	lw	ra,8(sp)
    2f70:	4412                	lw	s0,4(sp)
    2f72:	0ff77793          	andi	a5,a4,255
    2f76:	07de                	slli	a5,a5,0x17
    2f78:	8d5d                	or	a0,a0,a5
    2f7a:	0131                	addi	sp,sp,12
    2f7c:	8082                	ret

00002f7e <__clzsi2>:
    2f7e:	67c1                	lui	a5,0x10
    2f80:	02f57c63          	bgeu	a0,a5,2fb8 <__clzsi2+0x3a>
    2f84:	0ff00793          	li	a5,255
    2f88:	02000713          	li	a4,32
    2f8c:	00a7eb63          	bltu	a5,a0,2fa2 <__clzsi2+0x24>
    2f90:	00000797          	auipc	a5,0x0
    2f94:	6b878793          	addi	a5,a5,1720 # 3648 <__clz_tab>
    2f98:	97aa                	add	a5,a5,a0
    2f9a:	2388                	lbu	a0,0(a5)
    2f9c:	40a70533          	sub	a0,a4,a0
    2fa0:	8082                	ret
    2fa2:	8121                	srli	a0,a0,0x8
    2fa4:	00000797          	auipc	a5,0x0
    2fa8:	6a478793          	addi	a5,a5,1700 # 3648 <__clz_tab>
    2fac:	97aa                	add	a5,a5,a0
    2fae:	2388                	lbu	a0,0(a5)
    2fb0:	4761                	li	a4,24
    2fb2:	40a70533          	sub	a0,a4,a0
    2fb6:	8082                	ret
    2fb8:	010007b7          	lui	a5,0x1000
    2fbc:	00f56d63          	bltu	a0,a5,2fd6 <__clzsi2+0x58>
    2fc0:	8161                	srli	a0,a0,0x18
    2fc2:	00000797          	auipc	a5,0x0
    2fc6:	68678793          	addi	a5,a5,1670 # 3648 <__clz_tab>
    2fca:	97aa                	add	a5,a5,a0
    2fcc:	2388                	lbu	a0,0(a5)
    2fce:	4721                	li	a4,8
    2fd0:	40a70533          	sub	a0,a4,a0
    2fd4:	8082                	ret
    2fd6:	8141                	srli	a0,a0,0x10
    2fd8:	00000797          	auipc	a5,0x0
    2fdc:	67078793          	addi	a5,a5,1648 # 3648 <__clz_tab>
    2fe0:	97aa                	add	a5,a5,a0
    2fe2:	2388                	lbu	a0,0(a5)
    2fe4:	4741                	li	a4,16
    2fe6:	40a70533          	sub	a0,a4,a0
    2fea:	8082                	ret

00002fec <PAIRING_ADDR>:
    2fec:	e7e7 00e7 505b 5257 205d 6e45 6574 6972     ....[PWR] Enteri
    2ffc:	676e 4420 6565 2070 6c53 6565 2e70 2e2e     ng Deep Sleep...
    300c:	000d 0000 505b 5257 205d 6f57 656b 5520     ....[PWR] Woke U
    301c:	2e50 000d 465b 414c 4853 205d 6553 7474     P...[FLASH] Sett
    302c:	6e69 7367 5320 7661 6465 202e 4449 203a     ings Saved. ID: 
    303c:	7830 3025 5834 202c 7453 7461 7375 203a     0x%04X, Status: 
    304c:	6425 0a0d 0000 0000 4843 4e41 4547 0000     %d......CHANGE..
    305c:	4548 5241 4254 4145 0054 0000 0a0d 0a0d     HEARTBEAT.......
    306c:	3d3d 203d 4154 4b4e 5320 4e45 4f53 2052     === TANK SENSOR 
    307c:	4f42 544f 3d20 3d3d 000d 0000 6c50 7461     BOOT ===....Plat
    308c:	6f66 6d72 203a 4843 3233 3056 3330 4020     form: CH32V003 @
    309c:	2520 756c 4820 0d7a 000a 0000 535b 5359      %lu Hz.....[SYS
    30ac:	4554 5d4d 5320 6661 7465 2079 6544 616c     TEM] Safety Dela
    30bc:	2079 3528 2973 6620 726f 4620 616c 6873     y (5s) for Flash
    30cc:	6e69 2e67 2e2e 0020 6552 6461 2e79 000d     ing... .Ready...
    30dc:	6e49 7469 6169 696c 697a 676e 5220 6461     Initializing Rad
    30ec:	6f69 4820 7261 7764 7261 2e65 2e2e 000d     io Hardware.....
    30fc:	535b 5359 4554 5d4d 5020 6961 6572 2064     [SYSTEM] Paired 
    310c:	6553 736e 726f 202e 6f4c 6461 6465 4920     Sensor. Loaded I
    311c:	3a44 3020 2578 3430 0d58 000a 535b 5359     D: 0x%04X...[SYS
    312c:	4554 5d4d 4e20 544f 5020 4941 4552 2e44     TEM] NOT PAIRED.
    313c:	5720 6961 6974 676e 6620 726f 7520 6573      Waiting for use
    314c:	2072 6f74 7420 6972 6767 7265 7020 6961     r to trigger pai
    315c:	6972 676e 2e2e 0d2e 0000 0000 535b 5359     ring........[SYS
    316c:	4554 5d4d 4320 6f6c 6b63 5620 6c61 6469     TEM] Clock Valid
    317c:	7461 6f69 3a6e 3120 3030 6d30 2073 6564     ation: 1000ms de
    318c:	616c 2e79 2e2e 0000 4420 4e4f 2e45 4d20     lay..... DONE. M
    319c:	6c69 696c 2073 6944 6666 203a 6c25 2075     illis Diff: %lu 
    31ac:	736d 0a0d 0000 0000 535b 5359 4554 5d4d     ms......[SYSTEM]
    31bc:	4520 746e 7265 6e69 2067 6449 656c 4d20      Entering Idle M
    31cc:	646f 2e65 2820 6f48 646c 6220 7475 6f74     ode. (Hold butto
    31dc:	206e 6f66 2072 6170 7269 6e69 2967 000d     n for pairing)..
    31ec:	535b 5359 4554 5d4d 2a20 2a2a 4620 4341     [SYSTEM] *** FAC
    31fc:	4f54 5952 5220 5345 5445 5420 4952 4747     TORY RESET TRIGG
    320c:	5245 4445 2a20 2a2a 000d 0000 505b 5257     ERED ***....[PWR
    321c:	205d 6553 646e 6e69 2067 4e55 4150 5249     ] Sending UNPAIR
    322c:	7020 6361 656b 2074 6f74 7220 6365 6965      packet to recei
    323c:	6576 2072 6562 6f66 6572 7220 7365 7465     ver before reset
    324c:	2e2e 0d2e 0000 0000 535b 5359 4554 5d4d     ........[SYSTEM]
    325c:	4920 696e 6974 6c61 4c20 7665 6c65 4420      Initial Level D
    326c:	7465 6365 6574 3a64 2520 2564 0d25 000a     etected: %d%%...
    327c:	535b 5359 4554 5d4d 4c20 7665 6c65 4320     [SYSTEM] Level C
    328c:	6168 676e 6465 2620 4320 6e6f 6966 6d72     hanged & Confirm
    329c:	6465 203a 6425 2525 0a0d 0000 425b 5441     ed: %d%%....[BAT
    32ac:	205d 4242 4242 4242 4242 4242 4242 4242     ] BBBBBBBBBBBBBB
    32bc:	4242 4242 4242 4242 4242 4242 4242 4242     BBBBBBBBBBBBBBBB
    32cc:	4242 6142 7474 7265 2079 656c 6576 3a6c     BBBattery level:
    32dc:	2520 2564 0d25 000a 445b 5441 5d41 5220      %d%%...[DATA] R
    32ec:	6165 6f73 3a6e 2520 2073 207c 6553 3a71     eason: %s | Seq:
    32fc:	6c25 2075 207c 764c 3a6c 6425 2525 6320     %lu | Lvl:%d%% c
    330c:	7275 6572 746e 625f 7461 6574 7972 3a20     urrent_battery :
    331c:	2520 2564 2025 3e2d 5320 4e45 4944 474e      %d%% -> SENDING
    332c:	2820 4f50 4557 2052 414d 2958 2e2e 0d2e      (POWER MAX)....
    333c:	000a 0000 535b 5359 4554 5d4d 4e20 746f     ....[SYSTEM] Not
    334c:	7020 6961 6572 2c64 7320 656c 7065 6e69      paired, sleepin
    335c:	2e67 2e2e 000d 0000 535b 5359 4554 5d4d     g.......[SYSTEM]
    336c:	5420 7361 206b 6f44 656e 202e 6f47 6e69      Task Done. Goin
    337c:	2067 6f74 4420 6565 2070 6c53 6565 2e70     g to Deep Sleep.
    338c:	2e2e 000d 2d2d 2d2d 2d2d 2d2d 2d2d 2d2d     ....------------
    339c:	2d2d 2d2d 2d2d 2d2d 2d2d 2d2d 2d2d 2d2d     ----------------
    33ac:	2d2d 2d2d 2d2d 2d2d 2d2d 2d2d 2d2d 000d     --------------..
    33bc:	999a 3f99 0000 42c8 6666 4086 0000 4040     ...?...Bff.@..@@
    33cc:	9998 3f99 425b 5441 205d 6341 7574 6c61     ...?[BAT] Actual
    33dc:	5620 6c6f 6174 6567 203a 6425 252e 3230      Voltage: %d.%02
    33ec:	5664 0a0d 0000 0000 445b 4245 4755 205d     dV......[DEBUG] 
    33fc:	7250 626f 7365 203a 3031 3a30 6425 3720     Probes: 100:%d 7
    340c:	3a35 6425 3520 3a30 6425 3220 3a35 6425     5:%d 50:%d 25:%d
    341c:	0a0d 0000 445b 4245 4755 205d 6154 6b6e     ....[DEBUG] Tank
    342c:	4c20 7665 6c65 4420 7465 6365 6574 3a64      Level Detected:
    343c:	2520 2564 0d25 000a 0a0d 505b 4941 5d52      %d%%.....[PAIR]
    344c:	4e20 7765 5420 6e61 206b 4449 203a 7830      New Tank ID: 0x
    345c:	3025 5834 0a0d 0000 505b 4941 5d52 4220     %04X....[PAIR] B
    346c:	6f72 6461 6163 7473 6e69 2067 6f66 2072     roadcasting for 
    347c:	3033 2e73 2e2e 000d 505b 4941 5d52 4220     30s.....[PAIR] B
    348c:	6f72 6461 6163 7473 6320 6d6f 6c70 7465     roadcast complet
    349c:	2e65 5320 6174 7574 2073 4153 4556 2e44     e. Status SAVED.
    34ac:	4420 7461 2061 6977 6c6c 6e20 776f 7320      Data will now s
    34bc:	6174 7472 0d2e 0000 525b 4441 4f49 205d     tart....[RADIO] 
    34cc:	6f43 666e 6769 7275 6e69 2067 6148 6472     Configuring Hard
    34dc:	6177 6572 2820 3532 6b30 7062 2c73 2d20     ware (250kbps, -
    34ec:	6436 6d42 202c 4232 432d 4352 202c 4f4e     6dBm, 2B-CRC, NO
    34fc:	412d 4b43 2e29 2e2e 000d 0000 525b 4441     -ACK).......[RAD
    350c:	4f49 205d 6148 6472 6177 6572 5220 6165     IO] Hardware Rea
    351c:	7964 2820 4153 4546 522d 5741 2e29 000d     dy (SAFE-RAW)...
    352c:	525b 4441 4f49 205d 6f50 6577 6972 676e     [RADIO] Powering
    353c:	4420 574f 2e4e 2e2e 000d 0000 525b 4441      DOWN.......[RAD
    354c:	4f49 205d 6154 6772 7465 6e69 2067 6441     IO] Targeting Ad
    355c:	7264 7365 2073 3328 422d 7479 2965 203a     dress (3-Byte): 
    356c:	3025 5832 2520 3230 2058 3025 5832 0a0d     %02X %02X %02X..
    357c:	0000 0000 6e28 6c75 296c 0000 eff4 ffff     ....(null)......
    358c:	ef02 ffff efee ffff ef0a ffff efee ffff     ................
    359c:	eedc ffff efee ffff ef0a ffff ef02 ffff     ................
    35ac:	ef02 ffff eedc ffff ef0a ffff ef10 ffff     ................
    35bc:	ef10 ffff ef10 ffff eedc ffff eec2 ffff     ................
    35cc:	eec2 ffff efae ffff f0e8 ffff efae ffff     ................
    35dc:	ee9c ffff efae ffff f0e8 ffff eec2 ffff     ................
    35ec:	eec2 ffff ee9c ffff f0e8 ffff eed0 ffff     ................
    35fc:	eed0 ffff eed0 ffff ee9c ffff f34e ffff     ............N...
    360c:	f292 ffff f292 ffff f290 ffff f296 ffff     ................
    361c:	f296 ffff f26e ffff f290 ffff f296 ffff     ....n...........
    362c:	f26e ffff f296 ffff f290 ffff f33c ffff     n...........<...
    363c:	f33c ffff f33c ffff f26e ffff               <...<...n...

00003648 <__clz_tab>:
    3648:	0100 0202 0303 0303 0404 0404 0404 0404     ................
    3658:	0505 0505 0505 0505 0505 0505 0505 0505     ................
    3668:	0606 0606 0606 0606 0606 0606 0606 0606     ................
    3678:	0606 0606 0606 0606 0606 0606 0606 0606     ................
    3688:	0707 0707 0707 0707 0707 0707 0707 0707     ................
    3698:	0707 0707 0707 0707 0707 0707 0707 0707     ................
    36a8:	0707 0707 0707 0707 0707 0707 0707 0707     ................
    36b8:	0707 0707 0707 0707 0707 0707 0707 0707     ................
    36c8:	0808 0808 0808 0808 0808 0808 0808 0808     ................
    36d8:	0808 0808 0808 0808 0808 0808 0808 0808     ................
    36e8:	0808 0808 0808 0808 0808 0808 0808 0808     ................
    36f8:	0808 0808 0808 0808 0808 0808 0808 0808     ................
    3708:	0808 0808 0808 0808 0808 0808 0808 0808     ................
    3718:	0808 0808 0808 0808 0808 0808 0808 0808     ................
    3728:	0808 0808 0808 0808 0808 0808 0808 0808     ................
    3738:	0808 0808 0808 0808 0808 0808 0808 0808     ................
