
CH32V003F4P6_tank_sensor.elf:     file format elf32-littleriscv
CH32V003F4P6_tank_sensor.elf
architecture: riscv:rv32, flags 0x00000112:
EXEC_P, HAS_SYMS, D_PAGED
start address 0x00000000

Program Header:
    LOAD off    0x00001000 vaddr 0x00000000 paddr 0x00000000 align 2**12
         filesz 0x00001744 memsz 0x00001744 flags r-x
    LOAD off    0x00003000 vaddr 0x20000000 paddr 0x00001744 align 2**12
         filesz 0x00000028 memsz 0x00000040 flags rw-
    LOAD off    0x00003700 vaddr 0x20000700 paddr 0x20000700 align 2**12
         filesz 0x00000000 memsz 0x00000100 flags rw-

Sections:
Idx Name          Size      VMA       LMA       File off  Algn
  0 .init         000000a0  00000000  00000000  00001000  2**2
                  CONTENTS, ALLOC, LOAD, READONLY, CODE
  1 .highcodelalign 00000000  000000a0  000000a0  00003028  2**0
                  CONTENTS
  2 .highcode     00000000  20000000  20000000  00003028  2**0
                  CONTENTS
  3 .text         000016a4  000000a0  000000a0  000010a0  2**2
                  CONTENTS, ALLOC, LOAD, READONLY, CODE
  4 .fini         00000000  00001744  00001744  00003028  2**0
                  CONTENTS, ALLOC, LOAD, CODE
  5 .dalign       00000000  20000000  20000000  00003028  2**0
                  CONTENTS
  6 .dlalign      00000000  00001744  00001744  00003028  2**0
                  CONTENTS
  7 .data         00000028  20000000  00001744  00003000  2**2
                  CONTENTS, ALLOC, LOAD, DATA
  8 .bss          00000018  20000028  0000176c  00003028  2**2
                  ALLOC
  9 .stack        00000100  20000700  20000700  00003700  2**0
                  ALLOC
 10 .debug_info   000088e9  00000000  00000000  00003028  2**0
                  CONTENTS, READONLY, DEBUGGING
 11 .debug_abbrev 000017fa  00000000  00000000  0000b911  2**0
                  CONTENTS, READONLY, DEBUGGING
 12 .debug_loc    00003784  00000000  00000000  0000d10b  2**0
                  CONTENTS, READONLY, DEBUGGING
 13 .debug_aranges 000007d0  00000000  00000000  00010890  2**3
                  CONTENTS, READONLY, DEBUGGING
 14 .debug_ranges 00000888  00000000  00000000  00011060  2**3
                  CONTENTS, READONLY, DEBUGGING
 15 .debug_line   00008eab  00000000  00000000  000118e8  2**0
                  CONTENTS, READONLY, DEBUGGING
 16 .debug_str    00002573  00000000  00000000  0001a793  2**0
                  CONTENTS, READONLY, DEBUGGING
 17 .comment      00000033  00000000  00000000  0001cd06  2**0
                  CONTENTS, READONLY
 18 .debug_frame  00001108  00000000  00000000  0001cd3c  2**2
                  CONTENTS, READONLY, DEBUGGING
SYMBOL TABLE:
00000000 l    d  .init	00000000 .init
000000a0 l    d  .highcodelalign	00000000 .highcodelalign
20000000 l    d  .highcode	00000000 .highcode
000000a0 l    d  .text	00000000 .text
00001744 l    d  .fini	00000000 .fini
20000000 l    d  .dalign	00000000 .dalign
00001744 l    d  .dlalign	00000000 .dlalign
20000000 l    d  .data	00000000 .data
20000028 l    d  .bss	00000000 .bss
20000700 l    d  .stack	00000000 .stack
00000000 l    d  .debug_info	00000000 .debug_info
00000000 l    d  .debug_abbrev	00000000 .debug_abbrev
00000000 l    d  .debug_loc	00000000 .debug_loc
00000000 l    d  .debug_aranges	00000000 .debug_aranges
00000000 l    d  .debug_ranges	00000000 .debug_ranges
00000000 l    d  .debug_line	00000000 .debug_line
00000000 l    d  .debug_str	00000000 .debug_str
00000000 l    d  .comment	00000000 .comment
00000000 l    d  .debug_frame	00000000 .debug_frame
00000000 l    df *ABS*	00000000 main.c
20000030 l     O .bss	00000004 last_dispatch.4338
20000034 l     O .bss	00000004 seq_num.4339
00000000 l    df *ABS*	00000000 nrf24_simple.c
000005ec l     F .text	0000002e spi_xfer
0000061a l     F .text	00000024 nrf_write_reg
0000063e l     F .text	0000003a nrf_write_buf
00000000 l    df *ABS*	00000000 system_ch32v00x.c
00000000 l    df *ABS*	00000000 ch32v00x_gpio.c
00000000 l    df *ABS*	00000000 ch32v00x_misc.c
00000000 l    df *ABS*	00000000 ch32v00x_rcc.c
20000004 l     O .data	00000014 ADCPrescTable
20000018 l     O .data	00000010 APBAHBPrescTable
00000000 l    df *ABS*	00000000 ch32v00x_spi.c
00000000 l    df *ABS*	00000000 ch32v00x_tim.c
00000000 l    df *ABS*	00000000 ch32v00x_usart.c
00000000 l    df *ABS*	00000000 debug.c
2000003c l     O .bss	00000002 p_ms
2000003e l     O .bss	00000001 p_us
00000000 l    df *ABS*	00000000 wchprintf.c
000010ac  w    F .text	00000004 printDouble
000010b0  w    F .text	00000354 print
00001404  w    F .text	00000022 printf
20000828 g       .data	00000000 __global_pointer$
000008f0  w      .text	00000000 TIM1_CC_IRQHandler
00000bbc g     F .text	00000004 SPI_I2S_SendData
000008f0  w      .text	00000000 HardFault_Handler
00000f9a  w    F .text	0000010e printInt
000008f0  w      .text	00000000 SysTick_Handler
00000a30 g     F .text	00000062 NVIC_Init
000008f0  w      .text	00000000 PVD_IRQHandler
00000bc0 g     F .text	00000004 SPI_I2S_ReceiveData
000008f0  w      .text	00000000 NMI_Handler
00000d54 g     F .text	0000000a USART_GetFlagStatus
20000028 g       .bss	00000000 _sbss
00000100 g       *ABS*	00000000 __stack_size
00000dcc g     F .text	00000054 USART_Printf_Init
000000aa g     F .text	0000000a .hidden __riscv_restore_2
00000336 g     F .text	000000f8 run_pairing
000010a8  w    F .text	00000004 printLongLongInt
00000c1c g     F .text	00000018 TIM_Cmd
00001426 g     F .text	0000004a puts
00001470 g     O .text	00000003 PAIRING_ADDR
20000000 g     O .data	00000004 SystemCoreClock
000000d4 g     F .text	0000002c .hidden __udivsi3
000000a0 g       .init	00000000 _einit
000007d4 g     F .text	00000012 nrf24_power_up_tx
00000c5e g     F .text	0000000c TIM_ClearITPendingBit
00000b34 g     F .text	0000001e RCC_APB2PeriphClockCmd
000009a2 g     F .text	0000007c GPIO_Init
20000038 g     O .bss	00000004 NVIC_Priority_Group
000008f0  w      .text	00000000 SPI1_IRQHandler
00000d36 g     F .text	00000016 USART_Cmd
000000a0 g     F .text	0000000a .hidden __riscv_save_1
000000aa g     F .text	0000000a .hidden __riscv_restore_0
000008f0  w      .text	00000000 AWU_IRQHandler
000008f0  w      .text	00000000 EXTI7_0_IRQHandler
00000b52 g     F .text	0000001e RCC_APB1PeriphClockCmd
20000700 g       .stack	00000000 _heap_end
00000bc4 g     F .text	0000000a SPI_I2S_GetFlagStatus
000008f0  w      .text	00000000 DMA1_Channel4_IRQHandler
000008f0  w      .text	00000000 ADC1_IRQHandler
20000040 g       .bss	00000000 _ebss
000008f0  w      .text	00000000 DMA1_Channel7_IRQHandler
00000d5e g     F .text	00000034 Delay_Init
00000678 g     F .text	00000130 nrf24_init
0000021a g     F .text	0000006e timer_init
00000a28 g     F .text	00000004 GPIO_SetBits
00000100 g     F .text	00000008 .hidden __umodsi3
000008f0  w      .text	00000000 I2C1_EV_IRQHandler
00000c46 g     F .text	00000018 TIM_GetITStatus
00000a92 g     F .text	000000a2 RCC_GetClocksFreq
000008f0  w      .text	00000000 DMA1_Channel6_IRQHandler
00000c6a g     F .text	000000cc USART_Init
20000028 g     O .bss	00000004 g_millis
000008f0  w      .text	00000000 RCC_IRQHandler
000008f0  w      .text	00000000 TIM1_TRG_COM_IRQHandler
000008f0  w      .text	00000000 DMA1_Channel1_IRQHandler
00000000 g       .init	00000000 _start
00000eb4  w    F .text	000000e6 prints
00000c34 g     F .text	00000012 TIM_ITConfig
20000000 g       .highcode	00000000 _highcode_vma_start
000000b4 g     F .text	00000014 .hidden __mulsi3
000007e6 g     F .text	0000008c nrf24_send
00000a2c g     F .text	00000004 GPIO_ResetBits
20000000 g       .dalign	00000000 _data_vma
000002f4 g     F .text	00000024 generate_new_tank_id
0000014a g     F .text	000000a8 memset
0000042e g     F .text	000001be main
000008f0  w      .text	00000000 DMA1_Channel5_IRQHandler
000000cc g     F .text	00000058 .hidden __divsi3
00000d92 g     F .text	0000003a Delay_Ms
00000ba2 g     F .text	0000001a SPI_Cmd
000000a0 g       .highcodelalign	00000000 _highcode_lma
00000872 g     F .text	00000042 SystemInit
00000e6c  w    F .text	00000048 printchar
00000000 g       .init	00000000 _sinit
000008f0  w      .text	00000000 DMA1_Channel3_IRQHandler
000008f0  w      .text	00000000 TIM1_UP_IRQHandler
00000318 g     F .text	0000001e calculate_checksum
000008f0  w      .text	00000000 WWDG_IRQHandler
000007a8 g     F .text	0000002c nrf24_set_tx_addr
000001f2 g     F .text	00000028 TIM2_IRQHandler
20000800 g       .stack	00000000 _eusrstack
000000a0 g     F .text	0000000a .hidden __riscv_save_2
000008f0  w      .text	00000000 SW_Handler
000008f0  w      .text	00000000 TIM1_BRK_IRQHandler
00000d4c g     F .text	00000008 USART_SendData
00000e20 g     F .text	0000004c _write
20000028 g       .data	00000000 _edata
20000040 g       .bss	00000000 _end
20000000 g       .highcode	00000000 _highcode_vma_end
00000bce g     F .text	0000004e TIM_TimeBaseInit
00001744 g       .dlalign	00000000 _data_lma
000008b4 g     F .text	0000003c SystemCoreClockUpdate
00000124 g     F .text	00000024 .hidden __modsi3
000008f0  w      .text	00000000 DMA1_Channel2_IRQHandler
000008f2  w      .text	00000000 handle_reset
000008f0  w      .text	00000000 FLASH_IRQHandler
000000a0 g     F .text	0000000a .hidden __riscv_save_0
000008f0  w      .text	00000000 USART1_IRQHandler
000008f0  w      .text	00000000 I2C1_ER_IRQHandler
00000b70 g     F .text	00000032 SPI_Init
00000288 g     F .text	0000006c gpio_init
000000aa g     F .text	0000000a .hidden __riscv_restore_1
00000a1e g     F .text	0000000a GPIO_ReadInputDataBit
2000002c g     O .bss	00000002 g_tank_id



Disassembly of section .init:

00000000 <_sinit>:
   0:	0f30006f          	j	8f2 <handle_reset>
   4:	0000                	unimp
   6:	0000                	unimp
   8:	08f0                	addi	a2,sp,92
   a:	0000                	unimp
   c:	08f0                	addi	a2,sp,92
	...
  2e:	0000                	unimp
  30:	08f0                	addi	a2,sp,92
  32:	0000                	unimp
  34:	0000                	unimp
  36:	0000                	unimp
  38:	08f0                	addi	a2,sp,92
  3a:	0000                	unimp
  3c:	0000                	unimp
  3e:	0000                	unimp
  40:	08f0                	addi	a2,sp,92
  42:	0000                	unimp
  44:	08f0                	addi	a2,sp,92
  46:	0000                	unimp
  48:	08f0                	addi	a2,sp,92
  4a:	0000                	unimp
  4c:	08f0                	addi	a2,sp,92
  4e:	0000                	unimp
  50:	08f0                	addi	a2,sp,92
  52:	0000                	unimp
  54:	08f0                	addi	a2,sp,92
  56:	0000                	unimp
  58:	08f0                	addi	a2,sp,92
  5a:	0000                	unimp
  5c:	08f0                	addi	a2,sp,92
  5e:	0000                	unimp
  60:	08f0                	addi	a2,sp,92
  62:	0000                	unimp
  64:	08f0                	addi	a2,sp,92
  66:	0000                	unimp
  68:	08f0                	addi	a2,sp,92
  6a:	0000                	unimp
  6c:	08f0                	addi	a2,sp,92
  6e:	0000                	unimp
  70:	08f0                	addi	a2,sp,92
  72:	0000                	unimp
  74:	08f0                	addi	a2,sp,92
  76:	0000                	unimp
  78:	08f0                	addi	a2,sp,92
  7a:	0000                	unimp
  7c:	08f0                	addi	a2,sp,92
  7e:	0000                	unimp
  80:	08f0                	addi	a2,sp,92
  82:	0000                	unimp
  84:	08f0                	addi	a2,sp,92
  86:	0000                	unimp
  88:	08f0                	addi	a2,sp,92
  8a:	0000                	unimp
  8c:	08f0                	addi	a2,sp,92
  8e:	0000                	unimp
  90:	08f0                	addi	a2,sp,92
  92:	0000                	unimp
  94:	08f0                	addi	a2,sp,92
  96:	0000                	unimp
  98:	01f2                	slli	gp,gp,0x1c
  9a:	0000                	unimp
  9c:	0000                	unimp
	...

Disassembly of section .text:

000000a0 <__riscv_save_0>:
      a0:	1151                	addi	sp,sp,-12
      a2:	c026                	sw	s1,0(sp)
      a4:	c222                	sw	s0,4(sp)
      a6:	c406                	sw	ra,8(sp)
      a8:	8282                	jr	t0

000000aa <__riscv_restore_0>:
      aa:	4482                	lw	s1,0(sp)
      ac:	4412                	lw	s0,4(sp)
      ae:	40a2                	lw	ra,8(sp)
      b0:	0131                	addi	sp,sp,12
      b2:	8082                	ret

000000b4 <__mulsi3>:
      b4:	862a                	mv	a2,a0
      b6:	4501                	li	a0,0
      b8:	0015f693          	andi	a3,a1,1
      bc:	c291                	beqz	a3,c0 <__mulsi3+0xc>
      be:	9532                	add	a0,a0,a2
      c0:	8185                	srli	a1,a1,0x1
      c2:	0606                	slli	a2,a2,0x1
      c4:	f9f5                	bnez	a1,b8 <__mulsi3+0x4>
      c6:	8082                	ret
      c8:	0000                	unimp
	...

000000cc <__divsi3>:
      cc:	02054e63          	bltz	a0,108 <__umodsi3+0x8>
      d0:	0405c363          	bltz	a1,116 <__umodsi3+0x16>

000000d4 <__udivsi3>:
      d4:	862e                	mv	a2,a1
      d6:	85aa                	mv	a1,a0
      d8:	557d                	li	a0,-1
      da:	c215                	beqz	a2,fe <__udivsi3+0x2a>
      dc:	4685                	li	a3,1
      de:	00b67863          	bgeu	a2,a1,ee <__udivsi3+0x1a>
      e2:	00c05663          	blez	a2,ee <__udivsi3+0x1a>
      e6:	0606                	slli	a2,a2,0x1
      e8:	0686                	slli	a3,a3,0x1
      ea:	feb66ce3          	bltu	a2,a1,e2 <__udivsi3+0xe>
      ee:	4501                	li	a0,0
      f0:	00c5e463          	bltu	a1,a2,f8 <__udivsi3+0x24>
      f4:	8d91                	sub	a1,a1,a2
      f6:	8d55                	or	a0,a0,a3
      f8:	8285                	srli	a3,a3,0x1
      fa:	8205                	srli	a2,a2,0x1
      fc:	faf5                	bnez	a3,f0 <__udivsi3+0x1c>
      fe:	8082                	ret

00000100 <__umodsi3>:
     100:	8286                	mv	t0,ra
     102:	3fc9                	jal	d4 <__udivsi3>
     104:	852e                	mv	a0,a1
     106:	8282                	jr	t0
     108:	40a00533          	neg	a0,a0
     10c:	0005d763          	bgez	a1,11a <__umodsi3+0x1a>
     110:	40b005b3          	neg	a1,a1
     114:	b7c1                	j	d4 <__udivsi3>
     116:	40b005b3          	neg	a1,a1
     11a:	8286                	mv	t0,ra
     11c:	3f65                	jal	d4 <__udivsi3>
     11e:	40a00533          	neg	a0,a0
     122:	8282                	jr	t0

00000124 <__modsi3>:
     124:	8286                	mv	t0,ra
     126:	0005c763          	bltz	a1,134 <__modsi3+0x10>
     12a:	00054963          	bltz	a0,13c <__modsi3+0x18>
     12e:	375d                	jal	d4 <__udivsi3>
     130:	852e                	mv	a0,a1
     132:	8282                	jr	t0
     134:	40b005b3          	neg	a1,a1
     138:	fe055be3          	bgez	a0,12e <__modsi3+0xa>
     13c:	40a00533          	neg	a0,a0
     140:	3f51                	jal	d4 <__udivsi3>
     142:	40b00533          	neg	a0,a1
     146:	8282                	jr	t0
	...

0000014a <memset>:
     14a:	433d                	li	t1,15
     14c:	872a                	mv	a4,a0
     14e:	02c37363          	bgeu	t1,a2,174 <memset+0x2a>
     152:	00f77793          	andi	a5,a4,15
     156:	efbd                	bnez	a5,1d4 <memset+0x8a>
     158:	e5ad                	bnez	a1,1c2 <memset+0x78>
     15a:	ff067693          	andi	a3,a2,-16
     15e:	8a3d                	andi	a2,a2,15
     160:	96ba                	add	a3,a3,a4
     162:	c30c                	sw	a1,0(a4)
     164:	c34c                	sw	a1,4(a4)
     166:	c70c                	sw	a1,8(a4)
     168:	c74c                	sw	a1,12(a4)
     16a:	0741                	addi	a4,a4,16
     16c:	fed76be3          	bltu	a4,a3,162 <memset+0x18>
     170:	e211                	bnez	a2,174 <memset+0x2a>
     172:	8082                	ret
     174:	40c306b3          	sub	a3,t1,a2
     178:	068a                	slli	a3,a3,0x2
     17a:	00000297          	auipc	t0,0x0
     17e:	9696                	add	a3,a3,t0
     180:	00a68067          	jr	10(a3)
     184:	00b70723          	sb	a1,14(a4)
     188:	00b706a3          	sb	a1,13(a4)
     18c:	00b70623          	sb	a1,12(a4)
     190:	00b705a3          	sb	a1,11(a4)
     194:	00b70523          	sb	a1,10(a4)
     198:	00b704a3          	sb	a1,9(a4)
     19c:	00b70423          	sb	a1,8(a4)
     1a0:	00b703a3          	sb	a1,7(a4)
     1a4:	00b70323          	sb	a1,6(a4)
     1a8:	00b702a3          	sb	a1,5(a4)
     1ac:	00b70223          	sb	a1,4(a4)
     1b0:	00b701a3          	sb	a1,3(a4)
     1b4:	00b70123          	sb	a1,2(a4)
     1b8:	00b700a3          	sb	a1,1(a4)
     1bc:	00b70023          	sb	a1,0(a4)
     1c0:	8082                	ret
     1c2:	0ff5f593          	andi	a1,a1,255
     1c6:	00859693          	slli	a3,a1,0x8
     1ca:	8dd5                	or	a1,a1,a3
     1cc:	01059693          	slli	a3,a1,0x10
     1d0:	8dd5                	or	a1,a1,a3
     1d2:	b761                	j	15a <memset+0x10>
     1d4:	00279693          	slli	a3,a5,0x2
     1d8:	00000297          	auipc	t0,0x0
     1dc:	9696                	add	a3,a3,t0
     1de:	8286                	mv	t0,ra
     1e0:	fa8680e7          	jalr	-88(a3)
     1e4:	8096                	mv	ra,t0
     1e6:	17c1                	addi	a5,a5,-16
     1e8:	8f1d                	sub	a4,a4,a5
     1ea:	963e                	add	a2,a2,a5
     1ec:	f8c374e3          	bgeu	t1,a2,174 <memset+0x2a>
     1f0:	b7a5                	j	158 <memset+0xe>

000001f2 <TIM2_IRQHandler>:
     1f2:	4585                	li	a1,1
     1f4:	40000537          	lui	a0,0x40000
     1f8:	24f000ef          	jal	ra,c46 <TIM_GetITStatus>
     1fc:	cd09                	beqz	a0,216 <TIM2_IRQHandler+0x24>
     1fe:	200007b7          	lui	a5,0x20000
     202:	02878793          	addi	a5,a5,40 # 20000028 <_edata>
     206:	4398                	lw	a4,0(a5)
     208:	4585                	li	a1,1
     20a:	40000537          	lui	a0,0x40000
     20e:	0705                	addi	a4,a4,1
     210:	c398                	sw	a4,0(a5)
     212:	24d000ef          	jal	ra,c5e <TIM_ClearITPendingBit>
     216:	30200073          	mret

0000021a <timer_init>:
     21a:	e87ff2ef          	jal	t0,a0 <__riscv_save_0>
     21e:	1131                	addi	sp,sp,-20
     220:	4585                	li	a1,1
     222:	4505                	li	a0,1
     224:	c402                	sw	zero,8(sp)
     226:	c602                	sw	zero,12(sp)
     228:	00011823          	sh	zero,16(sp)
     22c:	c002                	sw	zero,0(sp)
     22e:	c202                	sw	zero,4(sp)
     230:	123000ef          	jal	ra,b52 <RCC_APB1PeriphClockCmd>
     234:	200007b7          	lui	a5,0x20000
     238:	0007a503          	lw	a0,0(a5) # 20000000 <_highcode_vma_end>
     23c:	6589                	lui	a1,0x2
     23e:	71058593          	addi	a1,a1,1808 # 2710 <_data_lma+0xfcc>
     242:	3d49                	jal	d4 <__udivsi3>
     244:	157d                	addi	a0,a0,-1
     246:	47a5                	li	a5,9
     248:	8468                	sh	a0,8(sp)
     24a:	002c                	addi	a1,sp,8
     24c:	40000537          	lui	a0,0x40000
     250:	c63e                	sw	a5,12(sp)
     252:	00011523          	sh	zero,10(sp)
     256:	179000ef          	jal	ra,bce <TIM_TimeBaseInit>
     25a:	4605                	li	a2,1
     25c:	4585                	li	a1,1
     25e:	40000537          	lui	a0,0x40000
     262:	1d3000ef          	jal	ra,c34 <TIM_ITConfig>
     266:	02600793          	li	a5,38
     26a:	807c                	sh	a5,0(sp)
     26c:	4785                	li	a5,1
     26e:	815c                	sb	a5,2(sp)
     270:	850a                	mv	a0,sp
     272:	4785                	li	a5,1
     274:	c23e                	sw	a5,4(sp)
     276:	7ba000ef          	jal	ra,a30 <NVIC_Init>
     27a:	4585                	li	a1,1
     27c:	40000537          	lui	a0,0x40000
     280:	19d000ef          	jal	ra,c1c <TIM_Cmd>
     284:	0151                	addi	sp,sp,20
     286:	b515                	j	aa <__riscv_restore_0>

00000288 <gpio_init>:
     288:	e19ff2ef          	jal	t0,a0 <__riscv_save_0>
     28c:	1151                	addi	sp,sp,-12
     28e:	4585                	li	a1,1
     290:	02400513          	li	a0,36
     294:	40011437          	lui	s0,0x40011
     298:	c002                	sw	zero,0(sp)
     29a:	c202                	sw	zero,4(sp)
     29c:	c402                	sw	zero,8(sp)
     29e:	097000ef          	jal	ra,b34 <RCC_APB2PeriphClockCmd>
     2a2:	04000793          	li	a5,64
     2a6:	04800493          	li	s1,72
     2aa:	858a                	mv	a1,sp
     2ac:	40040513          	addi	a0,s0,1024 # 40011400 <__global_pointer$+0x20010bd8>
     2b0:	807c                	sh	a5,0(sp)
     2b2:	c426                	sw	s1,8(sp)
     2b4:	6ee000ef          	jal	ra,9a2 <GPIO_Init>
     2b8:	4791                	li	a5,4
     2ba:	807c                	sh	a5,0(sp)
     2bc:	47c1                	li	a5,16
     2be:	c43e                	sw	a5,8(sp)
     2c0:	858a                	mv	a1,sp
     2c2:	478d                	li	a5,3
     2c4:	40040513          	addi	a0,s0,1024
     2c8:	c23e                	sw	a5,4(sp)
     2ca:	6d8000ef          	jal	ra,9a2 <GPIO_Init>
     2ce:	40040513          	addi	a0,s0,1024
     2d2:	4591                	li	a1,4
     2d4:	754000ef          	jal	ra,a28 <GPIO_SetBits>
     2d8:	4585                	li	a1,1
     2da:	4541                	li	a0,16
     2dc:	059000ef          	jal	ra,b34 <RCC_APB2PeriphClockCmd>
     2e0:	47dd                	li	a5,23
     2e2:	858a                	mv	a1,sp
     2e4:	40011537          	lui	a0,0x40011
     2e8:	807c                	sh	a5,0(sp)
     2ea:	c426                	sw	s1,8(sp)
     2ec:	6b6000ef          	jal	ra,9a2 <GPIO_Init>
     2f0:	0131                	addi	sp,sp,12
     2f2:	bb65                	j	aa <__riscv_restore_0>

000002f4 <generate_new_tank_id>:
     2f4:	200007b7          	lui	a5,0x20000
     2f8:	0287a503          	lw	a0,40(a5) # 20000028 <_edata>
     2fc:	00d51793          	slli	a5,a0,0xd
     300:	8fa9                	xor	a5,a5,a0
     302:	0117d513          	srli	a0,a5,0x11
     306:	8fa9                	xor	a5,a5,a0
     308:	00579513          	slli	a0,a5,0x5
     30c:	8d3d                	xor	a0,a0,a5
     30e:	0542                	slli	a0,a0,0x10
     310:	8141                	srli	a0,a0,0x10
     312:	e111                	bnez	a0,316 <generate_new_tank_id+0x22>
     314:	4505                	li	a0,1
     316:	8082                	ret

00000318 <calculate_checksum>:
     318:	4781                	li	a5,0
     31a:	4701                	li	a4,0
     31c:	15fd                	addi	a1,a1,-1
     31e:	00b7c463          	blt	a5,a1,326 <calculate_checksum+0xe>
     322:	853a                	mv	a0,a4
     324:	8082                	ret
     326:	00f506b3          	add	a3,a0,a5
     32a:	2294                	lbu	a3,0(a3)
     32c:	0785                	addi	a5,a5,1
     32e:	0ff7f793          	andi	a5,a5,255
     332:	8f35                	xor	a4,a4,a3
     334:	b7ed                	j	31e <calculate_checksum+0x6>

00000336 <run_pairing>:
     336:	d6bff2ef          	jal	t0,a0 <__riscv_save_0>
     33a:	1101                	addi	sp,sp,-32
     33c:	2e35                	jal	678 <nrf24_init>
     33e:	06400513          	li	a0,100
     342:	251000ef          	jal	ra,d92 <Delay_Ms>
     346:	20000437          	lui	s0,0x20000
     34a:	376d                	jal	2f4 <generate_new_tank_id>
     34c:	02c40413          	addi	s0,s0,44 # 2000002c <g_tank_id>
     350:	85aa                	mv	a1,a0
     352:	a00a                	sh	a0,0(s0)
     354:	00001537          	lui	a0,0x1
     358:	5c850513          	addi	a0,a0,1480 # 15c8 <PAIRING_ADDR+0x158>
     35c:	0a8010ef          	jal	ra,1404 <printf>
     360:	4669                	li	a2,26
     362:	4581                	li	a1,0
     364:	00610513          	addi	a0,sp,6
     368:	33cd                	jal	14a <memset>
     36a:	200157b7          	lui	a5,0x20015
     36e:	5aa78793          	addi	a5,a5,1450 # 200155aa <__global_pointer$+0x14d82>
     372:	c03e                	sw	a5,0(sp)
     374:	201e                	lhu	a5,0(s0)
     376:	02000593          	li	a1,32
     37a:	850a                	mv	a0,sp
     37c:	827c                	sh	a5,4(sp)
     37e:	3f69                	jal	318 <calculate_checksum>
     380:	00a10fa3          	sb	a0,31(sp)
     384:	00001537          	lui	a0,0x1
     388:	4589                	li	a1,2
     38a:	5ec50513          	addi	a0,a0,1516 # 15ec <PAIRING_ADDR+0x17c>
     38e:	076010ef          	jal	ra,1404 <printf>
     392:	01f14583          	lbu	a1,31(sp)
     396:	00001537          	lui	a0,0x1
     39a:	62c50513          	addi	a0,a0,1580 # 162c <PAIRING_ADDR+0x1bc>
     39e:	066010ef          	jal	ra,1404 <printf>
     3a2:	290d                	jal	7d4 <nrf24_power_up_tx>
     3a4:	6505                	lui	a0,0x1
     3a6:	47050513          	addi	a0,a0,1136 # 1470 <PAIRING_ADDR>
     3aa:	2efd                	jal	7a8 <nrf24_set_tx_addr>
     3ac:	4401                	li	s0,0
     3ae:	000014b7          	lui	s1,0x1
     3b2:	45d1                	li	a1,20
     3b4:	8522                	mv	a0,s0
     3b6:	33bd                	jal	124 <__modsi3>
     3b8:	47a5                	li	a5,9
     3ba:	4591                	li	a1,4
     3bc:	06a7c263          	blt	a5,a0,420 <run_pairing+0xea>
     3c0:	40011537          	lui	a0,0x40011
     3c4:	40050513          	addi	a0,a0,1024 # 40011400 <__global_pointer$+0x20010bd8>
     3c8:	664000ef          	jal	ra,a2c <GPIO_ResetBits>
     3cc:	8522                	mv	a0,s0
     3ce:	03200593          	li	a1,50
     3d2:	3b89                	jal	124 <__modsi3>
     3d4:	0405                	addi	s0,s0,1
     3d6:	e909                	bnez	a0,3e8 <run_pairing+0xb2>
     3d8:	6605                	lui	a2,0x1
     3da:	96060613          	addi	a2,a2,-1696 # 960 <handle_reset+0x6e>
     3de:	85a2                	mv	a1,s0
     3e0:	64848513          	addi	a0,s1,1608 # 1648 <PAIRING_ADDR+0x1d8>
     3e4:	020010ef          	jal	ra,1404 <printf>
     3e8:	02000593          	li	a1,32
     3ec:	850a                	mv	a0,sp
     3ee:	2ee5                	jal	7e6 <nrf24_send>
     3f0:	03200513          	li	a0,50
     3f4:	19f000ef          	jal	ra,d92 <Delay_Ms>
     3f8:	6785                	lui	a5,0x1
     3fa:	96078793          	addi	a5,a5,-1696 # 960 <handle_reset+0x6e>
     3fe:	faf41ae3          	bne	s0,a5,3b2 <run_pairing+0x7c>
     402:	40011537          	lui	a0,0x40011
     406:	4591                	li	a1,4
     408:	40050513          	addi	a0,a0,1024 # 40011400 <__global_pointer$+0x20010bd8>
     40c:	61c000ef          	jal	ra,a28 <GPIO_SetBits>
     410:	00001537          	lui	a0,0x1
     414:	66c50513          	addi	a0,a0,1644 # 166c <PAIRING_ADDR+0x1fc>
     418:	00e010ef          	jal	ra,1426 <puts>
     41c:	6105                	addi	sp,sp,32
     41e:	b171                	j	aa <__riscv_restore_0>
     420:	40011537          	lui	a0,0x40011
     424:	40050513          	addi	a0,a0,1024 # 40011400 <__global_pointer$+0x20010bd8>
     428:	600000ef          	jal	ra,a28 <GPIO_SetBits>
     42c:	b745                	j	3cc <run_pairing+0x96>

0000042e <main>:
     42e:	c73ff2ef          	jal	t0,a0 <__riscv_save_0>
     432:	fd410113          	addi	sp,sp,-44
     436:	29bd                	jal	8b4 <SystemCoreClockUpdate>
     438:	127000ef          	jal	ra,d5e <Delay_Init>
     43c:	6571                	lui	a0,0x1c
     43e:	20050513          	addi	a0,a0,512 # 1c200 <_data_lma+0x1aabc>
     442:	18b000ef          	jal	ra,dcc <USART_Printf_Init>
     446:	00001537          	lui	a0,0x1
     44a:	47450513          	addi	a0,a0,1140 # 1474 <PAIRING_ADDR+0x4>
     44e:	7d9000ef          	jal	ra,1426 <puts>
     452:	200007b7          	lui	a5,0x20000
     456:	0007a583          	lw	a1,0(a5) # 20000000 <_highcode_vma_end>
     45a:	00001537          	lui	a0,0x1
     45e:	49450513          	addi	a0,a0,1172 # 1494 <PAIRING_ADDR+0x24>
     462:	7a3000ef          	jal	ra,1404 <printf>
     466:	3b55                	jal	21a <timer_init>
     468:	3505                	jal	288 <gpio_init>
     46a:	08800793          	li	a5,136
     46e:	3007a073          	csrs	mstatus,a5
     472:	00001537          	lui	a0,0x1
     476:	4b450513          	addi	a0,a0,1204 # 14b4 <PAIRING_ADDR+0x44>
     47a:	7ad000ef          	jal	ra,1426 <puts>
     47e:	2aed                	jal	678 <nrf24_init>
     480:	00001537          	lui	a0,0x1
     484:	20000437          	lui	s0,0x20000
     488:	4d450513          	addi	a0,a0,1236 # 14d4 <PAIRING_ADDR+0x64>
     48c:	779000ef          	jal	ra,1404 <printf>
     490:	02840493          	addi	s1,s0,40 # 20000028 <_edata>
     494:	409c                	lw	a5,0(s1)
     496:	3e800513          	li	a0,1000
     49a:	02840413          	addi	s0,s0,40
     49e:	c03e                	sw	a5,0(sp)
     4a0:	0f3000ef          	jal	ra,d92 <Delay_Ms>
     4a4:	4782                	lw	a5,0(sp)
     4a6:	408c                	lw	a1,0(s1)
     4a8:	00001537          	lui	a0,0x1
     4ac:	50050513          	addi	a0,a0,1280 # 1500 <PAIRING_ADDR+0x90>
     4b0:	8d9d                	sub	a1,a1,a5
     4b2:	753000ef          	jal	ra,1404 <printf>
     4b6:	478d                	li	a5,3
     4b8:	400114b7          	lui	s1,0x40011
     4bc:	4591                	li	a1,4
     4be:	40048513          	addi	a0,s1,1024 # 40011400 <__global_pointer$+0x20010bd8>
     4c2:	c03e                	sw	a5,0(sp)
     4c4:	23a5                	jal	a2c <GPIO_ResetBits>
     4c6:	1f400513          	li	a0,500
     4ca:	0c9000ef          	jal	ra,d92 <Delay_Ms>
     4ce:	4591                	li	a1,4
     4d0:	40048513          	addi	a0,s1,1024
     4d4:	2b91                	jal	a28 <GPIO_SetBits>
     4d6:	1f400513          	li	a0,500
     4da:	0b9000ef          	jal	ra,d92 <Delay_Ms>
     4de:	4782                	lw	a5,0(sp)
     4e0:	17fd                	addi	a5,a5,-1
     4e2:	fbf9                	bnez	a5,4b8 <main+0x8a>
     4e4:	40048513          	addi	a0,s1,1024
     4e8:	4591                	li	a1,4
     4ea:	2b3d                	jal	a28 <GPIO_SetBits>
     4ec:	00001537          	lui	a0,0x1
     4f0:	52050513          	addi	a0,a0,1312 # 1520 <PAIRING_ADDR+0xb0>
     4f4:	733000ef          	jal	ra,1426 <puts>
     4f8:	4481                	li	s1,0
     4fa:	c002                	sw	zero,0(sp)
     4fc:	40011537          	lui	a0,0x40011
     500:	04000593          	li	a1,64
     504:	40050513          	addi	a0,a0,1024 # 40011400 <__global_pointer$+0x20010bd8>
     508:	2b19                	jal	a1e <GPIO_ReadInputDataBit>
     50a:	0c051e63          	bnez	a0,5e6 <main+0x1b8>
     50e:	e091                	bnez	s1,512 <main+0xe4>
     510:	4004                	lw	s1,0(s0)
     512:	4782                	lw	a5,0(sp)
     514:	e38d                	bnez	a5,536 <main+0x108>
     516:	4018                	lw	a4,0(s0)
     518:	6785                	lui	a5,0x1
     51a:	bb878793          	addi	a5,a5,-1096 # bb8 <SPI_Cmd+0x16>
     51e:	8f05                	sub	a4,a4,s1
     520:	00e7fb63          	bgeu	a5,a4,536 <main+0x108>
     524:	000017b7          	lui	a5,0x1
     528:	55878513          	addi	a0,a5,1368 # 1558 <PAIRING_ADDR+0xe8>
     52c:	6fb000ef          	jal	ra,1426 <puts>
     530:	3519                	jal	336 <run_pairing>
     532:	4785                	li	a5,1
     534:	c03e                	sw	a5,0(sp)
     536:	8081a783          	lw	a5,-2040(gp) # 20000030 <last_dispatch.4338>
     53a:	4018                	lw	a4,0(s0)
     53c:	80818693          	addi	a3,gp,-2040 # 20000030 <last_dispatch.4338>
     540:	c236                	sw	a3,4(sp)
     542:	8f1d                	sub	a4,a4,a5
     544:	6789                	lui	a5,0x2
     546:	71078793          	addi	a5,a5,1808 # 2710 <_data_lma+0xfcc>
     54a:	08e7fa63          	bgeu	a5,a4,5de <main+0x1b0>
     54e:	4661                	li	a2,24
     550:	4581                	li	a1,0
     552:	0848                	addi	a0,sp,20
     554:	3edd                	jal	14a <memset>
     556:	200357b7          	lui	a5,0x20035
     55a:	5aa78793          	addi	a5,a5,1450 # 200355aa <__global_pointer$+0x34d82>
     55e:	c63e                	sw	a5,12(sp)
     560:	200007b7          	lui	a5,0x20000
     564:	02c7d783          	lhu	a5,44(a5) # 2000002c <g_tank_id>
     568:	02000593          	li	a1,32
     56c:	0068                	addi	a0,sp,12
     56e:	80fc                	sh	a5,16(sp)
     570:	6795                	lui	a5,0x5
     572:	53278793          	addi	a5,a5,1330 # 5532 <_data_lma+0x3dee>
     576:	81fc                	sh	a5,18(sp)
     578:	80c1a703          	lw	a4,-2036(gp) # 20000034 <seq_num.4339>
     57c:	cc3a                	sw	a4,24(sp)
     57e:	c43a                	sw	a4,8(sp)
     580:	3b61                	jal	318 <calculate_checksum>
     582:	4722                	lw	a4,8(sp)
     584:	86aa                	mv	a3,a0
     586:	02a105a3          	sb	a0,43(sp)
     58a:	00001537          	lui	a0,0x1
     58e:	85ba                	mv	a1,a4
     590:	03200613          	li	a2,50
     594:	58050513          	addi	a0,a0,1408 # 1580 <PAIRING_ADDR+0x110>
     598:	66d000ef          	jal	ra,1404 <printf>
     59c:	40011537          	lui	a0,0x40011
     5a0:	4591                	li	a1,4
     5a2:	40050513          	addi	a0,a0,1024 # 40011400 <__global_pointer$+0x20010bd8>
     5a6:	2159                	jal	a2c <GPIO_ResetBits>
     5a8:	2435                	jal	7d4 <nrf24_power_up_tx>
     5aa:	470d                	li	a4,3
     5ac:	02000593          	li	a1,32
     5b0:	0068                	addi	a0,sp,12
     5b2:	c43a                	sw	a4,8(sp)
     5b4:	2c0d                	jal	7e6 <nrf24_send>
     5b6:	4529                	li	a0,10
     5b8:	7da000ef          	jal	ra,d92 <Delay_Ms>
     5bc:	4722                	lw	a4,8(sp)
     5be:	177d                	addi	a4,a4,-1
     5c0:	f775                	bnez	a4,5ac <main+0x17e>
     5c2:	40011537          	lui	a0,0x40011
     5c6:	4591                	li	a1,4
     5c8:	40050513          	addi	a0,a0,1024 # 40011400 <__global_pointer$+0x20010bd8>
     5cc:	29b1                	jal	a28 <GPIO_SetBits>
     5ce:	4018                	lw	a4,0(s0)
     5d0:	4792                	lw	a5,4(sp)
     5d2:	c398                	sw	a4,0(a5)
     5d4:	80c18793          	addi	a5,gp,-2036 # 20000034 <seq_num.4339>
     5d8:	4398                	lw	a4,0(a5)
     5da:	0705                	addi	a4,a4,1
     5dc:	c398                	sw	a4,0(a5)
     5de:	4551                	li	a0,20
     5e0:	7b2000ef          	jal	ra,d92 <Delay_Ms>
     5e4:	bf21                	j	4fc <main+0xce>
     5e6:	c002                	sw	zero,0(sp)
     5e8:	4481                	li	s1,0
     5ea:	b7b1                	j	536 <main+0x108>

000005ec <spi_xfer>:
     5ec:	ab5ff2ef          	jal	t0,a0 <__riscv_save_0>
     5f0:	842a                	mv	s0,a0
     5f2:	4589                	li	a1,2
     5f4:	40013537          	lui	a0,0x40013
     5f8:	23f1                	jal	bc4 <SPI_I2S_GetFlagStatus>
     5fa:	dd65                	beqz	a0,5f2 <spi_xfer+0x6>
     5fc:	85a2                	mv	a1,s0
     5fe:	40013537          	lui	a0,0x40013
     602:	2b6d                	jal	bbc <SPI_I2S_SendData>
     604:	4585                	li	a1,1
     606:	40013537          	lui	a0,0x40013
     60a:	2b6d                	jal	bc4 <SPI_I2S_GetFlagStatus>
     60c:	dd65                	beqz	a0,604 <spi_xfer+0x18>
     60e:	40013537          	lui	a0,0x40013
     612:	237d                	jal	bc0 <SPI_I2S_ReceiveData>
     614:	0ff57513          	andi	a0,a0,255
     618:	bc49                	j	aa <__riscv_restore_0>

0000061a <nrf_write_reg>:
     61a:	a87ff2ef          	jal	t0,a0 <__riscv_save_0>
     61e:	842e                	mv	s0,a1
     620:	84aa                	mv	s1,a0
     622:	45a1                	li	a1,8
     624:	40011537          	lui	a0,0x40011
     628:	2111                	jal	a2c <GPIO_ResetBits>
     62a:	0204e513          	ori	a0,s1,32
     62e:	3f7d                	jal	5ec <spi_xfer>
     630:	8522                	mv	a0,s0
     632:	3f6d                	jal	5ec <spi_xfer>
     634:	45a1                	li	a1,8
     636:	40011537          	lui	a0,0x40011
     63a:	26fd                	jal	a28 <GPIO_SetBits>
     63c:	b4bd                	j	aa <__riscv_restore_0>

0000063e <nrf_write_buf>:
     63e:	a63ff2ef          	jal	t0,a0 <__riscv_save_0>
     642:	1171                	addi	sp,sp,-4
     644:	84aa                	mv	s1,a0
     646:	842e                	mv	s0,a1
     648:	40011537          	lui	a0,0x40011
     64c:	45a1                	li	a1,8
     64e:	c032                	sw	a2,0(sp)
     650:	2ef1                	jal	a2c <GPIO_ResetBits>
     652:	0204e513          	ori	a0,s1,32
     656:	3f59                	jal	5ec <spi_xfer>
     658:	4602                	lw	a2,0(sp)
     65a:	00c404b3          	add	s1,s0,a2
     65e:	00941863          	bne	s0,s1,66e <nrf_write_buf+0x30>
     662:	45a1                	li	a1,8
     664:	40011537          	lui	a0,0x40011
     668:	26c1                	jal	a28 <GPIO_SetBits>
     66a:	0111                	addi	sp,sp,4
     66c:	bc3d                	j	aa <__riscv_restore_0>
     66e:	0405                	addi	s0,s0,1
     670:	fff44503          	lbu	a0,-1(s0)
     674:	3fa5                	jal	5ec <spi_xfer>
     676:	b7e5                	j	65e <nrf_write_buf+0x20>

00000678 <nrf24_init>:
     678:	a29ff2ef          	jal	t0,a0 <__riscv_save_0>
     67c:	6505                	lui	a0,0x1
     67e:	1101                	addi	sp,sp,-32
     680:	4585                	li	a1,1
     682:	03050513          	addi	a0,a0,48 # 1030 <printInt+0x96>
     686:	c002                	sw	zero,0(sp)
     688:	c202                	sw	zero,4(sp)
     68a:	c402                	sw	zero,8(sp)
     68c:	c602                	sw	zero,12(sp)
     68e:	c802                	sw	zero,16(sp)
     690:	ca02                	sw	zero,20(sp)
     692:	cc02                	sw	zero,24(sp)
     694:	00011e23          	sh	zero,28(sp)
     698:	2971                	jal	b34 <RCC_APB2PeriphClockCmd>
     69a:	06000793          	li	a5,96
     69e:	807c                	sh	a5,0(sp)
     6a0:	44e1                	li	s1,24
     6a2:	478d                	li	a5,3
     6a4:	858a                	mv	a1,sp
     6a6:	40011537          	lui	a0,0x40011
     6aa:	c426                	sw	s1,8(sp)
     6ac:	c23e                	sw	a5,4(sp)
     6ae:	2cd5                	jal	9a2 <GPIO_Init>
     6b0:	08000793          	li	a5,128
     6b4:	807c                	sh	a5,0(sp)
     6b6:	858a                	mv	a1,sp
     6b8:	4791                	li	a5,4
     6ba:	40011537          	lui	a0,0x40011
     6be:	c43e                	sw	a5,8(sp)
     6c0:	24cd                	jal	9a2 <GPIO_Init>
     6c2:	47a1                	li	a5,8
     6c4:	4441                	li	s0,16
     6c6:	858a                	mv	a1,sp
     6c8:	40011537          	lui	a0,0x40011
     6cc:	807c                	sh	a5,0(sp)
     6ce:	c422                	sw	s0,8(sp)
     6d0:	2cc9                	jal	9a2 <GPIO_Init>
     6d2:	45a1                	li	a1,8
     6d4:	40011537          	lui	a0,0x40011
     6d8:	2e81                	jal	a28 <GPIO_SetBits>
     6da:	8060                	sh	s0,0(sp)
     6dc:	c422                	sw	s0,8(sp)
     6de:	40011437          	lui	s0,0x40011
     6e2:	858a                	mv	a1,sp
     6e4:	40040513          	addi	a0,s0,1024 # 40011400 <__global_pointer$+0x20010bd8>
     6e8:	2c6d                	jal	9a2 <GPIO_Init>
     6ea:	40040513          	addi	a0,s0,1024
     6ee:	45c1                	li	a1,16
     6f0:	2e35                	jal	a2c <GPIO_ResetBits>
     6f2:	010407b7          	lui	a5,0x1040
     6f6:	c63e                	sw	a5,12(sp)
     6f8:	020007b7          	lui	a5,0x2000
     6fc:	ca3e                	sw	a5,20(sp)
     6fe:	006c                	addi	a1,sp,12
     700:	479d                	li	a5,7
     702:	40013537          	lui	a0,0x40013
     706:	86fc                	sh	a5,28(sp)
     708:	cc26                	sw	s1,24(sp)
     70a:	c802                	sw	zero,16(sp)
     70c:	2195                	jal	b70 <SPI_Init>
     70e:	4585                	li	a1,1
     710:	40013537          	lui	a0,0x40013
     714:	2179                	jal	ba2 <SPI_Cmd>
     716:	00001537          	lui	a0,0x1
     71a:	6a450513          	addi	a0,a0,1700 # 16a4 <PAIRING_ADDR+0x234>
     71e:	509000ef          	jal	ra,1426 <puts>
     722:	09600513          	li	a0,150
     726:	25b5                	jal	d92 <Delay_Ms>
     728:	4581                	li	a1,0
     72a:	4501                	li	a0,0
     72c:	35fd                	jal	61a <nrf_write_reg>
     72e:	4529                	li	a0,10
     730:	258d                	jal	d92 <Delay_Ms>
     732:	4589                	li	a1,2
     734:	4501                	li	a0,0
     736:	35d5                	jal	61a <nrf_write_reg>
     738:	4581                	li	a1,0
     73a:	4505                	li	a0,1
     73c:	3df9                	jal	61a <nrf_write_reg>
     73e:	4585                	li	a1,1
     740:	450d                	li	a0,3
     742:	3de1                	jal	61a <nrf_write_reg>
     744:	4581                	li	a1,0
     746:	4511                	li	a0,4
     748:	3dc9                	jal	61a <nrf_write_reg>
     74a:	06300593          	li	a1,99
     74e:	4515                	li	a0,5
     750:	35e9                	jal	61a <nrf_write_reg>
     752:	02600593          	li	a1,38
     756:	4519                	li	a0,6
     758:	35c9                	jal	61a <nrf_write_reg>
     75a:	02000593          	li	a1,32
     75e:	4545                	li	a0,17
     760:	3d6d                	jal	61a <nrf_write_reg>
     762:	07000593          	li	a1,112
     766:	451d                	li	a0,7
     768:	3d4d                	jal	61a <nrf_write_reg>
     76a:	45a1                	li	a1,8
     76c:	40011537          	lui	a0,0x40011
     770:	2c75                	jal	a2c <GPIO_ResetBits>
     772:	0e100513          	li	a0,225
     776:	3d9d                	jal	5ec <spi_xfer>
     778:	45a1                	li	a1,8
     77a:	40011537          	lui	a0,0x40011
     77e:	246d                	jal	a28 <GPIO_SetBits>
     780:	45a1                	li	a1,8
     782:	40011537          	lui	a0,0x40011
     786:	245d                	jal	a2c <GPIO_ResetBits>
     788:	0e200513          	li	a0,226
     78c:	3585                	jal	5ec <spi_xfer>
     78e:	45a1                	li	a1,8
     790:	40011537          	lui	a0,0x40011
     794:	2c51                	jal	a28 <GPIO_SetBits>
     796:	00001537          	lui	a0,0x1
     79a:	6e050513          	addi	a0,a0,1760 # 16e0 <PAIRING_ADDR+0x270>
     79e:	489000ef          	jal	ra,1426 <puts>
     7a2:	6105                	addi	sp,sp,32
     7a4:	907ff06f          	j	aa <__riscv_restore_0>

000007a8 <nrf24_set_tx_addr>:
     7a8:	8f9ff2ef          	jal	t0,a0 <__riscv_save_0>
     7ac:	2134                	lbu	a3,2(a0)
     7ae:	3110                	lbu	a2,1(a0)
     7b0:	210c                	lbu	a1,0(a0)
     7b2:	842a                	mv	s0,a0
     7b4:	00001537          	lui	a0,0x1
     7b8:	70450513          	addi	a0,a0,1796 # 1704 <PAIRING_ADDR+0x294>
     7bc:	449000ef          	jal	ra,1404 <printf>
     7c0:	85a2                	mv	a1,s0
     7c2:	460d                	li	a2,3
     7c4:	4541                	li	a0,16
     7c6:	3da5                	jal	63e <nrf_write_buf>
     7c8:	460d                	li	a2,3
     7ca:	85a2                	mv	a1,s0
     7cc:	4529                	li	a0,10
     7ce:	3d85                	jal	63e <nrf_write_buf>
     7d0:	8dbff06f          	j	aa <__riscv_restore_0>

000007d4 <nrf24_power_up_tx>:
     7d4:	8cdff2ef          	jal	t0,a0 <__riscv_save_0>
     7d8:	4589                	li	a1,2
     7da:	4501                	li	a0,0
     7dc:	3d3d                	jal	61a <nrf_write_reg>
     7de:	4515                	li	a0,5
     7e0:	2b4d                	jal	d92 <Delay_Ms>
     7e2:	8c9ff06f          	j	aa <__riscv_restore_0>

000007e6 <nrf24_send>:
     7e6:	8bbff2ef          	jal	t0,a0 <__riscv_save_0>
     7ea:	1171                	addi	sp,sp,-4
     7ec:	842a                	mv	s0,a0
     7ee:	84ae                	mv	s1,a1
     7f0:	451d                	li	a0,7
     7f2:	07000593          	li	a1,112
     7f6:	3515                	jal	61a <nrf_write_reg>
     7f8:	45a1                	li	a1,8
     7fa:	40011537          	lui	a0,0x40011
     7fe:	243d                	jal	a2c <GPIO_ResetBits>
     800:	0e100513          	li	a0,225
     804:	33e5                	jal	5ec <spi_xfer>
     806:	45a1                	li	a1,8
     808:	40011537          	lui	a0,0x40011
     80c:	2c31                	jal	a28 <GPIO_SetBits>
     80e:	45a1                	li	a1,8
     810:	40011537          	lui	a0,0x40011
     814:	2c21                	jal	a2c <GPIO_ResetBits>
     816:	0a000513          	li	a0,160
     81a:	3bc9                	jal	5ec <spi_xfer>
     81c:	4781                	li	a5,0
     81e:	0ff7f713          	andi	a4,a5,255
     822:	4501                	li	a0,0
     824:	00977563          	bgeu	a4,s1,82e <nrf24_send+0x48>
     828:	00f40733          	add	a4,s0,a5
     82c:	2308                	lbu	a0,0(a4)
     82e:	c03e                	sw	a5,0(sp)
     830:	3b75                	jal	5ec <spi_xfer>
     832:	4782                	lw	a5,0(sp)
     834:	02000713          	li	a4,32
     838:	0785                	addi	a5,a5,1
     83a:	fee792e3          	bne	a5,a4,81e <nrf24_send+0x38>
     83e:	45a1                	li	a1,8
     840:	40011537          	lui	a0,0x40011
     844:	22d5                	jal	a28 <GPIO_SetBits>
     846:	40011437          	lui	s0,0x40011
     84a:	45c1                	li	a1,16
     84c:	40040513          	addi	a0,s0,1024 # 40011400 <__global_pointer$+0x20010bd8>
     850:	2ae1                	jal	a28 <GPIO_SetBits>
     852:	4515                	li	a0,5
     854:	2b3d                	jal	d92 <Delay_Ms>
     856:	45c1                	li	a1,16
     858:	40040513          	addi	a0,s0,1024
     85c:	2ac1                	jal	a2c <GPIO_ResetBits>
     85e:	4509                	li	a0,2
     860:	2b0d                	jal	d92 <Delay_Ms>
     862:	03000593          	li	a1,48
     866:	451d                	li	a0,7
     868:	3b4d                	jal	61a <nrf_write_reg>
     86a:	4505                	li	a0,1
     86c:	0111                	addi	sp,sp,4
     86e:	83dff06f          	j	aa <__riscv_restore_0>

00000872 <SystemInit>:
     872:	400217b7          	lui	a5,0x40021
     876:	4398                	lw	a4,0(a5)
     878:	f8ff06b7          	lui	a3,0xf8ff0
     87c:	00176713          	ori	a4,a4,1
     880:	c398                	sw	a4,0(a5)
     882:	43d8                	lw	a4,4(a5)
     884:	8f75                	and	a4,a4,a3
     886:	c3d8                	sw	a4,4(a5)
     888:	4398                	lw	a4,0(a5)
     88a:	fef706b7          	lui	a3,0xfef70
     88e:	16fd                	addi	a3,a3,-1
     890:	8f75                	and	a4,a4,a3
     892:	c398                	sw	a4,0(a5)
     894:	4398                	lw	a4,0(a5)
     896:	fffc06b7          	lui	a3,0xfffc0
     89a:	16fd                	addi	a3,a3,-1
     89c:	8f75                	and	a4,a4,a3
     89e:	c398                	sw	a4,0(a5)
     8a0:	43d8                	lw	a4,4(a5)
     8a2:	ff4006b7          	lui	a3,0xff400
     8a6:	16fd                	addi	a3,a3,-1
     8a8:	8f75                	and	a4,a4,a3
     8aa:	c3d8                	sw	a4,4(a5)
     8ac:	009f0737          	lui	a4,0x9f0
     8b0:	c798                	sw	a4,8(a5)
     8b2:	8082                	ret

000008b4 <SystemCoreClockUpdate>:
     8b4:	400216b7          	lui	a3,0x40021
     8b8:	42d8                	lw	a4,4(a3)
     8ba:	200007b7          	lui	a5,0x20000
     8be:	4611                	li	a2,4
     8c0:	8b31                	andi	a4,a4,12
     8c2:	00078793          	mv	a5,a5
     8c6:	00c70563          	beq	a4,a2,8d0 <SystemCoreClockUpdate+0x1c>
     8ca:	4621                	li	a2,8
     8cc:	00c70863          	beq	a4,a2,8dc <SystemCoreClockUpdate+0x28>
     8d0:	016e3737          	lui	a4,0x16e3
     8d4:	60070713          	addi	a4,a4,1536 # 16e3600 <_data_lma+0x16e1ebc>
     8d8:	c398                	sw	a4,0(a5)
     8da:	8082                	ret
     8dc:	42d8                	lw	a4,4(a3)
     8de:	00f71693          	slli	a3,a4,0xf
     8e2:	fe06d7e3          	bgez	a3,8d0 <SystemCoreClockUpdate+0x1c>
     8e6:	02dc7737          	lui	a4,0x2dc7
     8ea:	c0070713          	addi	a4,a4,-1024 # 2dc6c00 <_data_lma+0x2dc54bc>
     8ee:	b7ed                	j	8d8 <SystemCoreClockUpdate+0x24>

000008f0 <ADC1_IRQHandler>:
     8f0:	a001                	j	8f0 <ADC1_IRQHandler>

000008f2 <handle_reset>:
     8f2:	20000197          	auipc	gp,0x20000
     8f6:	f3618193          	addi	gp,gp,-202 # 20000828 <__global_pointer$>
     8fa:	fd818113          	addi	sp,gp,-40 # 20000800 <_eusrstack>
     8fe:	0a000513          	li	a0,160
     902:	1ffff597          	auipc	a1,0x1ffff
     906:	6fe58593          	addi	a1,a1,1790 # 20000000 <_highcode_vma_end>
     90a:	1ffff617          	auipc	a2,0x1ffff
     90e:	6f660613          	addi	a2,a2,1782 # 20000000 <_highcode_vma_end>
     912:	00c5fa63          	bgeu	a1,a2,926 <handle_reset+0x34>
     916:	00052283          	lw	t0,0(a0) # 40011000 <__global_pointer$+0x200107d8>
     91a:	0055a023          	sw	t0,0(a1)
     91e:	0511                	addi	a0,a0,4
     920:	0591                	addi	a1,a1,4
     922:	fec5eae3          	bltu	a1,a2,916 <handle_reset+0x24>
     926:	00001517          	auipc	a0,0x1
     92a:	e1e50513          	addi	a0,a0,-482 # 1744 <_data_lma>
     92e:	1ffff597          	auipc	a1,0x1ffff
     932:	6d258593          	addi	a1,a1,1746 # 20000000 <_highcode_vma_end>
     936:	1ffff617          	auipc	a2,0x1ffff
     93a:	6f260613          	addi	a2,a2,1778 # 20000028 <_edata>
     93e:	00c5fa63          	bgeu	a1,a2,952 <handle_reset+0x60>
     942:	00052283          	lw	t0,0(a0)
     946:	0055a023          	sw	t0,0(a1)
     94a:	0511                	addi	a0,a0,4
     94c:	0591                	addi	a1,a1,4
     94e:	fec5eae3          	bltu	a1,a2,942 <handle_reset+0x50>
     952:	1ffff517          	auipc	a0,0x1ffff
     956:	6d650513          	addi	a0,a0,1750 # 20000028 <_edata>
     95a:	81818593          	addi	a1,gp,-2024 # 20000040 <_ebss>
     95e:	00b57763          	bgeu	a0,a1,96c <handle_reset+0x7a>
     962:	00052023          	sw	zero,0(a0)
     966:	0511                	addi	a0,a0,4
     968:	feb56de3          	bltu	a0,a1,962 <handle_reset+0x70>
     96c:	000022b7          	lui	t0,0x2
     970:	88028293          	addi	t0,t0,-1920 # 1880 <_data_lma+0x13c>
     974:	30029073          	csrw	mstatus,t0
     978:	428d                	li	t0,3
     97a:	80429073          	csrw	0x804,t0
     97e:	fffff297          	auipc	t0,0xfffff
     982:	68228293          	addi	t0,t0,1666 # 0 <_sinit>
     986:	0032e293          	ori	t0,t0,3
     98a:	30529073          	csrw	mtvec,t0
     98e:	ee5ff0ef          	jal	ra,872 <SystemInit>
     992:	00000297          	auipc	t0,0x0
     996:	a9c28293          	addi	t0,t0,-1380 # 42e <main>
     99a:	34129073          	csrw	mepc,t0
     99e:	30200073          	mret

000009a2 <GPIO_Init>:
     9a2:	4594                	lw	a3,8(a1)
     9a4:	0106f793          	andi	a5,a3,16
     9a8:	00f6f293          	andi	t0,a3,15
     9ac:	c781                	beqz	a5,9b4 <GPIO_Init+0x12>
     9ae:	41dc                	lw	a5,4(a1)
     9b0:	00f2e2b3          	or	t0,t0,a5
     9b4:	0005d383          	lhu	t2,0(a1)
     9b8:	0ff3f793          	andi	a5,t2,255
     9bc:	c3a5                	beqz	a5,a1c <GPIO_Init+0x7a>
     9be:	00052303          	lw	t1,0(a0)
     9c2:	1161                	addi	sp,sp,-8
     9c4:	c222                	sw	s0,4(sp)
     9c6:	c026                	sw	s1,0(sp)
     9c8:	4781                	li	a5,0
     9ca:	02800413          	li	s0,40
     9ce:	04800493          	li	s1,72
     9d2:	4705                	li	a4,1
     9d4:	00f71633          	sll	a2,a4,a5
     9d8:	00c3f733          	and	a4,t2,a2
     9dc:	02e61263          	bne	a2,a4,a00 <GPIO_Init+0x5e>
     9e0:	00279593          	slli	a1,a5,0x2
     9e4:	473d                	li	a4,15
     9e6:	00b71733          	sll	a4,a4,a1
     9ea:	fff74713          	not	a4,a4
     9ee:	00677333          	and	t1,a4,t1
     9f2:	00b295b3          	sll	a1,t0,a1
     9f6:	0065e333          	or	t1,a1,t1
     9fa:	00869d63          	bne	a3,s0,a14 <GPIO_Init+0x72>
     9fe:	c950                	sw	a2,20(a0)
     a00:	0785                	addi	a5,a5,1
     a02:	4721                	li	a4,8
     a04:	fce797e3          	bne	a5,a4,9d2 <GPIO_Init+0x30>
     a08:	4412                	lw	s0,4(sp)
     a0a:	00652023          	sw	t1,0(a0)
     a0e:	4482                	lw	s1,0(sp)
     a10:	0121                	addi	sp,sp,8
     a12:	8082                	ret
     a14:	fe9696e3          	bne	a3,s1,a00 <GPIO_Init+0x5e>
     a18:	c910                	sw	a2,16(a0)
     a1a:	b7dd                	j	a00 <GPIO_Init+0x5e>
     a1c:	8082                	ret

00000a1e <GPIO_ReadInputDataBit>:
     a1e:	4508                	lw	a0,8(a0)
     a20:	8d6d                	and	a0,a0,a1
     a22:	00a03533          	snez	a0,a0
     a26:	8082                	ret

00000a28 <GPIO_SetBits>:
     a28:	c90c                	sw	a1,16(a0)
     a2a:	8082                	ret

00000a2c <GPIO_ResetBits>:
     a2c:	c94c                	sw	a1,20(a0)
     a2e:	8082                	ret

00000a30 <NVIC_Init>:
     a30:	8101a683          	lw	a3,-2032(gp) # 20000038 <NVIC_Priority_Group>
     a34:	4785                	li	a5,1
     a36:	2118                	lbu	a4,0(a0)
     a38:	02f69063          	bne	a3,a5,a58 <NVIC_Init+0x28>
     a3c:	311c                	lbu	a5,1(a0)
     a3e:	02d79c63          	bne	a5,a3,a76 <NVIC_Init+0x46>
     a42:	213c                	lbu	a5,2(a0)
     a44:	079a                	slli	a5,a5,0x6
     a46:	f807e793          	ori	a5,a5,-128
     a4a:	e000e6b7          	lui	a3,0xe000e
     a4e:	0ff7f793          	andi	a5,a5,255
     a52:	96ba                	add	a3,a3,a4
     a54:	40f68023          	sb	a5,1024(a3) # e000e400 <__global_pointer$+0xc000dbd8>
     a58:	4685                	li	a3,1
     a5a:	00575793          	srli	a5,a4,0x5
     a5e:	00e69733          	sll	a4,a3,a4
     a62:	4154                	lw	a3,4(a0)
     a64:	ce89                	beqz	a3,a7e <NVIC_Init+0x4e>
     a66:	04078793          	addi	a5,a5,64 # 20000040 <_ebss>
     a6a:	078a                	slli	a5,a5,0x2
     a6c:	e000e6b7          	lui	a3,0xe000e
     a70:	97b6                	add	a5,a5,a3
     a72:	c398                	sw	a4,0(a5)
     a74:	8082                	ret
     a76:	f3ed                	bnez	a5,a58 <NVIC_Init+0x28>
     a78:	213c                	lbu	a5,2(a0)
     a7a:	079a                	slli	a5,a5,0x6
     a7c:	b7f9                	j	a4a <NVIC_Init+0x1a>
     a7e:	06078793          	addi	a5,a5,96
     a82:	e000e6b7          	lui	a3,0xe000e
     a86:	078a                	slli	a5,a5,0x2
     a88:	97b6                	add	a5,a5,a3
     a8a:	c398                	sw	a4,0(a5)
     a8c:	0000100f          	fence.i
     a90:	8082                	ret

00000a92 <RCC_GetClocksFreq>:
     a92:	e0eff2ef          	jal	t0,a0 <__riscv_save_0>
     a96:	40021737          	lui	a4,0x40021
     a9a:	435c                	lw	a5,4(a4)
     a9c:	4691                	li	a3,4
     a9e:	842a                	mv	s0,a0
     aa0:	8bb1                	andi	a5,a5,12
     aa2:	00d78563          	beq	a5,a3,aac <RCC_GetClocksFreq+0x1a>
     aa6:	46a1                	li	a3,8
     aa8:	08d78063          	beq	a5,a3,b28 <RCC_GetClocksFreq+0x96>
     aac:	016e37b7          	lui	a5,0x16e3
     ab0:	60078793          	addi	a5,a5,1536 # 16e3600 <_data_lma+0x16e1ebc>
     ab4:	c01c                	sw	a5,0(s0)
     ab6:	400216b7          	lui	a3,0x40021
     aba:	42dc                	lw	a5,4(a3)
     abc:	8391                	srli	a5,a5,0x4
     abe:	00f7f713          	andi	a4,a5,15
     ac2:	200007b7          	lui	a5,0x20000
     ac6:	01878793          	addi	a5,a5,24 # 20000018 <APBAHBPrescTable>
     aca:	97ba                	add	a5,a5,a4
     acc:	238c                	lbu	a1,0(a5)
     ace:	42dc                	lw	a5,4(a3)
     ad0:	4018                	lw	a4,0(s0)
     ad2:	0ff5f593          	andi	a1,a1,255
     ad6:	0807f793          	andi	a5,a5,128
     ada:	00b75533          	srl	a0,a4,a1
     ade:	e781                	bnez	a5,ae6 <RCC_GetClocksFreq+0x54>
     ae0:	853a                	mv	a0,a4
     ae2:	df2ff0ef          	jal	ra,d4 <__udivsi3>
     ae6:	c048                	sw	a0,4(s0)
     ae8:	c408                	sw	a0,8(s0)
     aea:	c448                	sw	a0,12(s0)
     aec:	400217b7          	lui	a5,0x40021
     af0:	43dc                	lw	a5,4(a5)
     af2:	468d                	li	a3,3
     af4:	83ad                	srli	a5,a5,0xb
     af6:	8bfd                	andi	a5,a5,31
     af8:	0037d713          	srli	a4,a5,0x3
     afc:	078a                	slli	a5,a5,0x2
     afe:	8bf1                	andi	a5,a5,28
     b00:	8fd9                	or	a5,a5,a4
     b02:	0137f613          	andi	a2,a5,19
     b06:	0037f713          	andi	a4,a5,3
     b0a:	00c6f463          	bgeu	a3,a2,b12 <RCC_GetClocksFreq+0x80>
     b0e:	ff478713          	addi	a4,a5,-12 # 40020ff4 <__global_pointer$+0x200207cc>
     b12:	200007b7          	lui	a5,0x20000
     b16:	00478793          	addi	a5,a5,4 # 20000004 <ADCPrescTable>
     b1a:	97ba                	add	a5,a5,a4
     b1c:	238c                	lbu	a1,0(a5)
     b1e:	db6ff0ef          	jal	ra,d4 <__udivsi3>
     b22:	c808                	sw	a0,16(s0)
     b24:	d86ff06f          	j	aa <__riscv_restore_0>
     b28:	435c                	lw	a5,4(a4)
     b2a:	02dc77b7          	lui	a5,0x2dc7
     b2e:	c0078793          	addi	a5,a5,-1024 # 2dc6c00 <_data_lma+0x2dc54bc>
     b32:	b749                	j	ab4 <RCC_GetClocksFreq+0x22>

00000b34 <RCC_APB2PeriphClockCmd>:
     b34:	c599                	beqz	a1,b42 <RCC_APB2PeriphClockCmd+0xe>
     b36:	40021737          	lui	a4,0x40021
     b3a:	4f1c                	lw	a5,24(a4)
     b3c:	8d5d                	or	a0,a0,a5
     b3e:	cf08                	sw	a0,24(a4)
     b40:	8082                	ret
     b42:	400217b7          	lui	a5,0x40021
     b46:	4f98                	lw	a4,24(a5)
     b48:	fff54513          	not	a0,a0
     b4c:	8d79                	and	a0,a0,a4
     b4e:	cf88                	sw	a0,24(a5)
     b50:	8082                	ret

00000b52 <RCC_APB1PeriphClockCmd>:
     b52:	c599                	beqz	a1,b60 <RCC_APB1PeriphClockCmd+0xe>
     b54:	40021737          	lui	a4,0x40021
     b58:	4f5c                	lw	a5,28(a4)
     b5a:	8d5d                	or	a0,a0,a5
     b5c:	cf48                	sw	a0,28(a4)
     b5e:	8082                	ret
     b60:	400217b7          	lui	a5,0x40021
     b64:	4fd8                	lw	a4,28(a5)
     b66:	fff54513          	not	a0,a0
     b6a:	8d79                	and	a0,a0,a4
     b6c:	cfc8                	sw	a0,28(a5)
     b6e:	8082                	ret

00000b70 <SPI_Init>:
     b70:	211a                	lhu	a4,0(a0)
     b72:	678d                	lui	a5,0x3
     b74:	04078793          	addi	a5,a5,64 # 3040 <_data_lma+0x18fc>
     b78:	21b6                	lhu	a3,2(a1)
     b7a:	8f7d                	and	a4,a4,a5
     b7c:	219e                	lhu	a5,0(a1)
     b7e:	8fd5                	or	a5,a5,a3
     b80:	21d6                	lhu	a3,4(a1)
     b82:	8fd5                	or	a5,a5,a3
     b84:	21f6                	lhu	a3,6(a1)
     b86:	8fd5                	or	a5,a5,a3
     b88:	2596                	lhu	a3,8(a1)
     b8a:	8fd5                	or	a5,a5,a3
     b8c:	25b6                	lhu	a3,10(a1)
     b8e:	8fd5                	or	a5,a5,a3
     b90:	25d6                	lhu	a3,12(a1)
     b92:	8fd5                	or	a5,a5,a3
     b94:	25f6                	lhu	a3,14(a1)
     b96:	8fd5                	or	a5,a5,a3
     b98:	8fd9                	or	a5,a5,a4
     b9a:	a11e                	sh	a5,0(a0)
     b9c:	299e                	lhu	a5,16(a1)
     b9e:	a91e                	sh	a5,16(a0)
     ba0:	8082                	ret

00000ba2 <SPI_Cmd>:
     ba2:	211e                	lhu	a5,0(a0)
     ba4:	c589                	beqz	a1,bae <SPI_Cmd+0xc>
     ba6:	0407e793          	ori	a5,a5,64
     baa:	a11e                	sh	a5,0(a0)
     bac:	8082                	ret
     bae:	07c2                	slli	a5,a5,0x10
     bb0:	83c1                	srli	a5,a5,0x10
     bb2:	fbf7f793          	andi	a5,a5,-65
     bb6:	07c2                	slli	a5,a5,0x10
     bb8:	83c1                	srli	a5,a5,0x10
     bba:	bfc5                	j	baa <SPI_Cmd+0x8>

00000bbc <SPI_I2S_SendData>:
     bbc:	a54e                	sh	a1,12(a0)
     bbe:	8082                	ret

00000bc0 <SPI_I2S_ReceiveData>:
     bc0:	254a                	lhu	a0,12(a0)
     bc2:	8082                	ret

00000bc4 <SPI_I2S_GetFlagStatus>:
     bc4:	250a                	lhu	a0,8(a0)
     bc6:	8d6d                	and	a0,a0,a1
     bc8:	00a03533          	snez	a0,a0
     bcc:	8082                	ret

00000bce <TIM_TimeBaseInit>:
     bce:	211e                	lhu	a5,0(a0)
     bd0:	40013737          	lui	a4,0x40013
     bd4:	c0070713          	addi	a4,a4,-1024 # 40012c00 <__global_pointer$+0x200123d8>
     bd8:	07c2                	slli	a5,a5,0x10
     bda:	83c1                	srli	a5,a5,0x10
     bdc:	00e50663          	beq	a0,a4,be8 <TIM_TimeBaseInit+0x1a>
     be0:	40000737          	lui	a4,0x40000
     be4:	00e51663          	bne	a0,a4,bf0 <TIM_TimeBaseInit+0x22>
     be8:	21ba                	lhu	a4,2(a1)
     bea:	f8f7f793          	andi	a5,a5,-113
     bee:	8fd9                	or	a5,a5,a4
     bf0:	21fa                	lhu	a4,6(a1)
     bf2:	cff7f793          	andi	a5,a5,-769
     bf6:	07c2                	slli	a5,a5,0x10
     bf8:	83c1                	srli	a5,a5,0x10
     bfa:	8fd9                	or	a5,a5,a4
     bfc:	a11e                	sh	a5,0(a0)
     bfe:	21de                	lhu	a5,4(a1)
     c00:	b55e                	sh	a5,44(a0)
     c02:	219e                	lhu	a5,0(a1)
     c04:	b51e                	sh	a5,40(a0)
     c06:	400137b7          	lui	a5,0x40013
     c0a:	c0078793          	addi	a5,a5,-1024 # 40012c00 <__global_pointer$+0x200123d8>
     c0e:	00f51463          	bne	a0,a5,c16 <TIM_TimeBaseInit+0x48>
     c12:	259c                	lbu	a5,8(a1)
     c14:	b91e                	sh	a5,48(a0)
     c16:	4785                	li	a5,1
     c18:	a95e                	sh	a5,20(a0)
     c1a:	8082                	ret

00000c1c <TIM_Cmd>:
     c1c:	211e                	lhu	a5,0(a0)
     c1e:	c589                	beqz	a1,c28 <TIM_Cmd+0xc>
     c20:	0017e793          	ori	a5,a5,1
     c24:	a11e                	sh	a5,0(a0)
     c26:	8082                	ret
     c28:	07c2                	slli	a5,a5,0x10
     c2a:	83c1                	srli	a5,a5,0x10
     c2c:	9bf9                	andi	a5,a5,-2
     c2e:	07c2                	slli	a5,a5,0x10
     c30:	83c1                	srli	a5,a5,0x10
     c32:	bfcd                	j	c24 <TIM_Cmd+0x8>

00000c34 <TIM_ITConfig>:
     c34:	255e                	lhu	a5,12(a0)
     c36:	c601                	beqz	a2,c3e <TIM_ITConfig+0xa>
     c38:	8ddd                	or	a1,a1,a5
     c3a:	a54e                	sh	a1,12(a0)
     c3c:	8082                	ret
     c3e:	fff5c593          	not	a1,a1
     c42:	8dfd                	and	a1,a1,a5
     c44:	bfdd                	j	c3a <TIM_ITConfig+0x6>

00000c46 <TIM_GetITStatus>:
     c46:	291e                	lhu	a5,16(a0)
     c48:	254a                	lhu	a0,12(a0)
     c4a:	8fed                	and	a5,a5,a1
     c4c:	0542                	slli	a0,a0,0x10
     c4e:	8141                	srli	a0,a0,0x10
     c50:	c789                	beqz	a5,c5a <TIM_GetITStatus+0x14>
     c52:	8d6d                	and	a0,a0,a1
     c54:	00a03533          	snez	a0,a0
     c58:	8082                	ret
     c5a:	4501                	li	a0,0
     c5c:	8082                	ret

00000c5e <TIM_ClearITPendingBit>:
     c5e:	fff5c593          	not	a1,a1
     c62:	05c2                	slli	a1,a1,0x10
     c64:	81c1                	srli	a1,a1,0x10
     c66:	a90e                	sh	a1,16(a0)
     c68:	8082                	ret

00000c6a <USART_Init>:
     c6a:	c36ff2ef          	jal	t0,a0 <__riscv_save_0>
     c6e:	2916                	lhu	a3,16(a0)
     c70:	77f5                	lui	a5,0xffffd
     c72:	17fd                	addi	a5,a5,-1
     c74:	8ff5                	and	a5,a5,a3
     c76:	21f6                	lhu	a3,6(a1)
     c78:	25da                	lhu	a4,12(a1)
     c7a:	1121                	addi	sp,sp,-24
     c7c:	8fd5                	or	a5,a5,a3
     c7e:	a91e                	sh	a5,16(a0)
     c80:	2556                	lhu	a3,12(a0)
     c82:	77fd                	lui	a5,0xfffff
     c84:	9f378793          	addi	a5,a5,-1549 # ffffe9f3 <__global_pointer$+0xdfffe1cb>
     c88:	8ff5                	and	a5,a5,a3
     c8a:	21d6                	lhu	a3,4(a1)
     c8c:	842a                	mv	s0,a0
     c8e:	c02e                	sw	a1,0(sp)
     c90:	8fd5                	or	a5,a5,a3
     c92:	2596                	lhu	a3,8(a1)
     c94:	8fd5                	or	a5,a5,a3
     c96:	25b6                	lhu	a3,10(a1)
     c98:	8fd5                	or	a5,a5,a3
     c9a:	a55e                	sh	a5,12(a0)
     c9c:	295e                	lhu	a5,20(a0)
     c9e:	07c2                	slli	a5,a5,0x10
     ca0:	83c1                	srli	a5,a5,0x10
     ca2:	cff7f793          	andi	a5,a5,-769
     ca6:	8f5d                	or	a4,a4,a5
     ca8:	a95a                	sh	a4,20(a0)
     caa:	0048                	addi	a0,sp,4
     cac:	33dd                	jal	a92 <RCC_GetClocksFreq>
     cae:	400147b7          	lui	a5,0x40014
     cb2:	80078793          	addi	a5,a5,-2048 # 40013800 <__global_pointer$+0x20012fd8>
     cb6:	4582                	lw	a1,0(sp)
     cb8:	06f41263          	bne	s0,a5,d1c <USART_Init+0xb2>
     cbc:	47c2                	lw	a5,16(sp)
     cbe:	245a                	lhu	a4,12(s0)
     cc0:	00179513          	slli	a0,a5,0x1
     cc4:	953e                	add	a0,a0,a5
     cc6:	0742                	slli	a4,a4,0x10
     cc8:	050e                	slli	a0,a0,0x3
     cca:	8741                	srai	a4,a4,0x10
     ccc:	953e                	add	a0,a0,a5
     cce:	418c                	lw	a1,0(a1)
     cd0:	04075863          	bgez	a4,d20 <USART_Init+0xb6>
     cd4:	0586                	slli	a1,a1,0x1
     cd6:	bfeff0ef          	jal	ra,d4 <__udivsi3>
     cda:	06400593          	li	a1,100
     cde:	c02a                	sw	a0,0(sp)
     ce0:	bf4ff0ef          	jal	ra,d4 <__udivsi3>
     ce4:	4782                	lw	a5,0(sp)
     ce6:	00451493          	slli	s1,a0,0x4
     cea:	06400593          	li	a1,100
     cee:	853e                	mv	a0,a5
     cf0:	c10ff0ef          	jal	ra,100 <__umodsi3>
     cf4:	245e                	lhu	a5,12(s0)
     cf6:	07c2                	slli	a5,a5,0x10
     cf8:	87c1                	srai	a5,a5,0x10
     cfa:	0207d563          	bgez	a5,d24 <USART_Init+0xba>
     cfe:	050e                	slli	a0,a0,0x3
     d00:	06400593          	li	a1,100
     d04:	03250513          	addi	a0,a0,50
     d08:	bccff0ef          	jal	ra,d4 <__udivsi3>
     d0c:	891d                	andi	a0,a0,7
     d0e:	8cc9                	or	s1,s1,a0
     d10:	04c2                	slli	s1,s1,0x10
     d12:	80c1                	srli	s1,s1,0x10
     d14:	a406                	sh	s1,8(s0)
     d16:	0161                	addi	sp,sp,24
     d18:	b92ff06f          	j	aa <__riscv_restore_0>
     d1c:	47b2                	lw	a5,12(sp)
     d1e:	b745                	j	cbe <USART_Init+0x54>
     d20:	058a                	slli	a1,a1,0x2
     d22:	bf55                	j	cd6 <USART_Init+0x6c>
     d24:	0512                	slli	a0,a0,0x4
     d26:	06400593          	li	a1,100
     d2a:	03250513          	addi	a0,a0,50
     d2e:	ba6ff0ef          	jal	ra,d4 <__udivsi3>
     d32:	893d                	andi	a0,a0,15
     d34:	bfe9                	j	d0e <USART_Init+0xa4>

00000d36 <USART_Cmd>:
     d36:	c591                	beqz	a1,d42 <USART_Cmd+0xc>
     d38:	255e                	lhu	a5,12(a0)
     d3a:	6709                	lui	a4,0x2
     d3c:	8fd9                	or	a5,a5,a4
     d3e:	a55e                	sh	a5,12(a0)
     d40:	8082                	ret
     d42:	255a                	lhu	a4,12(a0)
     d44:	77f9                	lui	a5,0xffffe
     d46:	17fd                	addi	a5,a5,-1
     d48:	8ff9                	and	a5,a5,a4
     d4a:	bfd5                	j	d3e <USART_Cmd+0x8>

00000d4c <USART_SendData>:
     d4c:	1ff5f593          	andi	a1,a1,511
     d50:	a14e                	sh	a1,4(a0)
     d52:	8082                	ret

00000d54 <USART_GetFlagStatus>:
     d54:	210a                	lhu	a0,0(a0)
     d56:	8d6d                	and	a0,a0,a1
     d58:	00a03533          	snez	a0,a0
     d5c:	8082                	ret

00000d5e <Delay_Init>:
     d5e:	b42ff2ef          	jal	t0,a0 <__riscv_save_0>
     d62:	200007b7          	lui	a5,0x20000
     d66:	0007a503          	lw	a0,0(a5) # 20000000 <_highcode_vma_end>
     d6a:	007a15b7          	lui	a1,0x7a1
     d6e:	20058593          	addi	a1,a1,512 # 7a1200 <_data_lma+0x79fabc>
     d72:	b62ff0ef          	jal	ra,d4 <__udivsi3>
     d76:	0ff57513          	andi	a0,a0,255
     d7a:	80a18b23          	sb	a0,-2026(gp) # 2000003e <p_us>
     d7e:	00551793          	slli	a5,a0,0x5
     d82:	8f89                	sub	a5,a5,a0
     d84:	078a                	slli	a5,a5,0x2
     d86:	953e                	add	a0,a0,a5
     d88:	050e                	slli	a0,a0,0x3
     d8a:	80a19a23          	sh	a0,-2028(gp) # 2000003c <p_ms>
     d8e:	b1cff06f          	j	aa <__riscv_restore_0>

00000d92 <Delay_Ms>:
     d92:	b0eff2ef          	jal	t0,a0 <__riscv_save_0>
     d96:	e000f437          	lui	s0,0xe000f
     d9a:	405c                	lw	a5,4(s0)
     d9c:	85aa                	mv	a1,a0
     d9e:	9bf9                	andi	a5,a5,-2
     da0:	c05c                	sw	a5,4(s0)
     da2:	8141d503          	lhu	a0,-2028(gp) # 2000003c <p_ms>
     da6:	b0eff0ef          	jal	ra,b4 <__mulsi3>
     daa:	c808                	sw	a0,16(s0)
     dac:	00042423          	sw	zero,8(s0) # e000f008 <__global_pointer$+0xc000e7e0>
     db0:	401c                	lw	a5,0(s0)
     db2:	0017e793          	ori	a5,a5,1
     db6:	c01c                	sw	a5,0(s0)
     db8:	e000f7b7          	lui	a5,0xe000f
     dbc:	43d8                	lw	a4,4(a5)
     dbe:	8b05                	andi	a4,a4,1
     dc0:	df75                	beqz	a4,dbc <Delay_Ms+0x2a>
     dc2:	4398                	lw	a4,0(a5)
     dc4:	9b79                	andi	a4,a4,-2
     dc6:	c398                	sw	a4,0(a5)
     dc8:	ae2ff06f          	j	aa <__riscv_restore_0>

00000dcc <USART_Printf_Init>:
     dcc:	ad4ff2ef          	jal	t0,a0 <__riscv_save_0>
     dd0:	842a                	mv	s0,a0
     dd2:	6511                	lui	a0,0x4
     dd4:	1111                	addi	sp,sp,-28
     dd6:	4585                	li	a1,1
     dd8:	02050513          	addi	a0,a0,32 # 4020 <_data_lma+0x28dc>
     ddc:	3ba1                	jal	b34 <RCC_APB2PeriphClockCmd>
     dde:	02000793          	li	a5,32
     de2:	807c                	sh	a5,0(sp)
     de4:	40011537          	lui	a0,0x40011
     de8:	478d                	li	a5,3
     dea:	c23e                	sw	a5,4(sp)
     dec:	858a                	mv	a1,sp
     dee:	47e1                	li	a5,24
     df0:	40050513          	addi	a0,a0,1024 # 40011400 <__global_pointer$+0x20010bd8>
     df4:	c43e                	sw	a5,8(sp)
     df6:	3675                	jal	9a2 <GPIO_Init>
     df8:	c622                	sw	s0,12(sp)
     dfa:	40014437          	lui	s0,0x40014
     dfe:	000807b7          	lui	a5,0x80
     e02:	006c                	addi	a1,sp,12
     e04:	80040513          	addi	a0,s0,-2048 # 40013800 <__global_pointer$+0x20012fd8>
     e08:	ca3e                	sw	a5,20(sp)
     e0a:	c802                	sw	zero,16(sp)
     e0c:	00011c23          	sh	zero,24(sp)
     e10:	3da9                	jal	c6a <USART_Init>
     e12:	4585                	li	a1,1
     e14:	80040513          	addi	a0,s0,-2048
     e18:	3f39                	jal	d36 <USART_Cmd>
     e1a:	0171                	addi	sp,sp,28
     e1c:	a8eff06f          	j	aa <__riscv_restore_0>

00000e20 <_write>:
     e20:	a80ff2ef          	jal	t0,a0 <__riscv_save_0>
     e24:	1171                	addi	sp,sp,-4
     e26:	84ae                	mv	s1,a1
     e28:	4401                	li	s0,0
     e2a:	02c45d63          	bge	s0,a2,e64 <_write+0x44>
     e2e:	400147b7          	lui	a5,0x40014
     e32:	80078713          	addi	a4,a5,-2048 # 40013800 <__global_pointer$+0x20012fd8>
     e36:	853a                	mv	a0,a4
     e38:	04000593          	li	a1,64
     e3c:	c032                	sw	a2,0(sp)
     e3e:	3f19                	jal	d54 <USART_GetFlagStatus>
     e40:	400147b7          	lui	a5,0x40014
     e44:	80078713          	addi	a4,a5,-2048 # 40013800 <__global_pointer$+0x20012fd8>
     e48:	4602                	lw	a2,0(sp)
     e4a:	d575                	beqz	a0,e36 <_write+0x16>
     e4c:	00848733          	add	a4,s1,s0
     e50:	00070583          	lb	a1,0(a4) # 2000 <_data_lma+0x8bc>
     e54:	80078513          	addi	a0,a5,-2048
     e58:	0405                	addi	s0,s0,1
     e5a:	05c2                	slli	a1,a1,0x10
     e5c:	81c1                	srli	a1,a1,0x10
     e5e:	35fd                	jal	d4c <USART_SendData>
     e60:	4602                	lw	a2,0(sp)
     e62:	b7e1                	j	e2a <_write+0xa>
     e64:	8532                	mv	a0,a2
     e66:	0111                	addi	sp,sp,4
     e68:	a42ff06f          	j	aa <__riscv_restore_0>

00000e6c <printchar>:
     e6c:	1141                	addi	sp,sp,-16
     e6e:	c606                	sw	ra,12(sp)
     e70:	c02e                	sw	a1,0(sp)
     e72:	cd0d                	beqz	a0,eac <printchar+0x40>
     e74:	4118                	lw	a4,0(a0)
     e76:	87aa                	mv	a5,a0
     e78:	c305                	beqz	a4,e98 <printchar+0x2c>
     e7a:	4158                	lw	a4,4(a0)
     e7c:	557d                	li	a0,-1
     e7e:	cb11                	beqz	a4,e92 <printchar+0x26>
     e80:	4685                	li	a3,1
     e82:	00d71b63          	bne	a4,a3,e98 <printchar+0x2c>
     e86:	4798                	lw	a4,8(a5)
     e88:	00070023          	sb	zero,0(a4)
     e8c:	0007a223          	sw	zero,4(a5)
     e90:	4505                	li	a0,1
     e92:	40b2                	lw	ra,12(sp)
     e94:	0141                	addi	sp,sp,16
     e96:	8082                	ret
     e98:	4798                	lw	a4,8(a5)
     e9a:	4682                	lw	a3,0(sp)
     e9c:	a314                	sb	a3,0(a4)
     e9e:	4798                	lw	a4,8(a5)
     ea0:	0705                	addi	a4,a4,1
     ea2:	c798                	sw	a4,8(a5)
     ea4:	43d8                	lw	a4,4(a5)
     ea6:	177d                	addi	a4,a4,-1
     ea8:	c3d8                	sw	a4,4(a5)
     eaa:	b7dd                	j	e90 <printchar+0x24>
     eac:	4605                	li	a2,1
     eae:	858a                	mv	a1,sp
     eb0:	3f85                	jal	e20 <_write>
     eb2:	bff9                	j	e90 <printchar+0x24>

00000eb4 <prints>:
     eb4:	1101                	addi	sp,sp,-32
     eb6:	cc22                	sw	s0,24(sp)
     eb8:	c22e                	sw	a1,4(sp)
     eba:	ce06                	sw	ra,28(sp)
     ebc:	ca26                	sw	s1,20(sp)
     ebe:	842a                	mv	s0,a0
     ec0:	4781                	li	a5,0
     ec2:	02000593          	li	a1,32
     ec6:	02064563          	bltz	a2,ef0 <prints+0x3c>
     eca:	4592                	lw	a1,4(sp)
     ecc:	95be                	add	a1,a1,a5
     ece:	00058583          	lb	a1,0(a1)
     ed2:	e58d                	bnez	a1,efc <prints+0x48>
     ed4:	02c7d863          	bge	a5,a2,f04 <prints+0x50>
     ed8:	02e7d463          	bge	a5,a4,f00 <prints+0x4c>
     edc:	8e19                	sub	a2,a2,a4
     ede:	02000513          	li	a0,32
     ee2:	0026f593          	andi	a1,a3,2
     ee6:	c02a                	sw	a0,0(sp)
     ee8:	c589                	beqz	a1,ef2 <prints+0x3e>
     eea:	e701                	bnez	a4,ef2 <prints+0x3e>
     eec:	03000593          	li	a1,48
     ef0:	c02e                	sw	a1,0(sp)
     ef2:	8a85                	andi	a3,a3,1
     ef4:	4481                	li	s1,0
     ef6:	ea95                	bnez	a3,f2a <prints+0x76>
     ef8:	84b2                	mv	s1,a2
     efa:	a00d                	j	f1c <prints+0x68>
     efc:	0785                	addi	a5,a5,1
     efe:	b7f1                	j	eca <prints+0x16>
     f00:	8e1d                	sub	a2,a2,a5
     f02:	bff1                	j	ede <prints+0x2a>
     f04:	4601                	li	a2,0
     f06:	bfe1                	j	ede <prints+0x2a>
     f08:	4582                	lw	a1,0(sp)
     f0a:	8522                	mv	a0,s0
     f0c:	c83a                	sw	a4,16(sp)
     f0e:	c632                	sw	a2,12(sp)
     f10:	c43e                	sw	a5,8(sp)
     f12:	3fa9                	jal	e6c <printchar>
     f14:	47a2                	lw	a5,8(sp)
     f16:	4632                	lw	a2,12(sp)
     f18:	4742                	lw	a4,16(sp)
     f1a:	14fd                	addi	s1,s1,-1
     f1c:	fe9046e3          	bgtz	s1,f08 <prints+0x54>
     f20:	84b2                	mv	s1,a2
     f22:	00065363          	bgez	a2,f28 <prints+0x74>
     f26:	4481                	li	s1,0
     f28:	8e05                	sub	a2,a2,s1
     f2a:	02e7c763          	blt	a5,a4,f58 <prints+0xa4>
     f2e:	87a6                	mv	a5,s1
     f30:	4692                	lw	a3,4(sp)
     f32:	40978733          	sub	a4,a5,s1
     f36:	9736                	add	a4,a4,a3
     f38:	00070583          	lb	a1,0(a4)
     f3c:	ed95                	bnez	a1,f78 <prints+0xc4>
     f3e:	84b2                	mv	s1,a2
     f40:	04904463          	bgtz	s1,f88 <prints+0xd4>
     f44:	00065363          	bgez	a2,f4a <prints+0x96>
     f48:	4601                	li	a2,0
     f4a:	40f2                	lw	ra,28(sp)
     f4c:	4462                	lw	s0,24(sp)
     f4e:	44d2                	lw	s1,20(sp)
     f50:	00f60533          	add	a0,a2,a5
     f54:	6105                	addi	sp,sp,32
     f56:	8082                	ret
     f58:	8f1d                	sub	a4,a4,a5
     f5a:	87ba                	mv	a5,a4
     f5c:	03000593          	li	a1,48
     f60:	8522                	mv	a0,s0
     f62:	c832                	sw	a2,16(sp)
     f64:	c63e                	sw	a5,12(sp)
     f66:	c43a                	sw	a4,8(sp)
     f68:	3711                	jal	e6c <printchar>
     f6a:	47b2                	lw	a5,12(sp)
     f6c:	4722                	lw	a4,8(sp)
     f6e:	4642                	lw	a2,16(sp)
     f70:	17fd                	addi	a5,a5,-1
     f72:	f7ed                	bnez	a5,f5c <prints+0xa8>
     f74:	94ba                	add	s1,s1,a4
     f76:	bf65                	j	f2e <prints+0x7a>
     f78:	8522                	mv	a0,s0
     f7a:	c632                	sw	a2,12(sp)
     f7c:	c43e                	sw	a5,8(sp)
     f7e:	35fd                	jal	e6c <printchar>
     f80:	47a2                	lw	a5,8(sp)
     f82:	4632                	lw	a2,12(sp)
     f84:	0785                	addi	a5,a5,1
     f86:	b76d                	j	f30 <prints+0x7c>
     f88:	4582                	lw	a1,0(sp)
     f8a:	8522                	mv	a0,s0
     f8c:	c432                	sw	a2,8(sp)
     f8e:	c23e                	sw	a5,4(sp)
     f90:	3df1                	jal	e6c <printchar>
     f92:	14fd                	addi	s1,s1,-1
     f94:	4622                	lw	a2,8(sp)
     f96:	4792                	lw	a5,4(sp)
     f98:	b765                	j	f40 <prints+0x8c>

00000f9a <printInt>:
     f9a:	7139                	addi	sp,sp,-64
     f9c:	de06                	sw	ra,60(sp)
     f9e:	dc22                	sw	s0,56(sp)
     fa0:	da26                	sw	s1,52(sp)
     fa2:	c23e                	sw	a5,4(sp)
     fa4:	8332                	mv	t1,a2
     fa6:	863a                	mv	a2,a4
     fa8:	ed89                	bnez	a1,fc2 <printInt+0x28>
     faa:	4692                	lw	a3,4(sp)
     fac:	03000793          	li	a5,48
     fb0:	4701                	li	a4,0
     fb2:	086c                	addi	a1,sp,28
     fb4:	86fc                	sh	a5,28(sp)
     fb6:	3dfd                	jal	eb4 <prints>
     fb8:	50f2                	lw	ra,60(sp)
     fba:	5462                	lw	s0,56(sp)
     fbc:	54d2                	lw	s1,52(sp)
     fbe:	6121                	addi	sp,sp,64
     fc0:	8082                	ret
     fc2:	84aa                	mv	s1,a0
     fc4:	8436                	mv	s0,a3
     fc6:	87ae                	mv	a5,a1
     fc8:	ca91                	beqz	a3,fdc <printInt+0x42>
     fca:	4729                	li	a4,10
     fcc:	4401                	li	s0,0
     fce:	00e31763          	bne	t1,a4,fdc <printInt+0x42>
     fd2:	0005d563          	bgez	a1,fdc <printInt+0x42>
     fd6:	40b007b3          	neg	a5,a1
     fda:	4405                	li	s0,1
     fdc:	4686                	lw	a3,64(sp)
     fde:	020109a3          	sb	zero,51(sp)
     fe2:	03310713          	addi	a4,sp,51
     fe6:	fc668693          	addi	a3,a3,-58 # 40020fc6 <__global_pointer$+0x2002079e>
     fea:	c436                	sw	a3,8(sp)
     fec:	859a                	mv	a1,t1
     fee:	853e                	mv	a0,a5
     ff0:	ca32                	sw	a2,20(sp)
     ff2:	c83a                	sw	a4,16(sp)
     ff4:	c61a                	sw	t1,12(sp)
     ff6:	c03e                	sw	a5,0(sp)
     ff8:	908ff0ef          	jal	ra,100 <__umodsi3>
     ffc:	46a5                	li	a3,9
     ffe:	4782                	lw	a5,0(sp)
    1000:	4332                	lw	t1,12(sp)
    1002:	4742                	lw	a4,16(sp)
    1004:	4652                	lw	a2,20(sp)
    1006:	00a6d463          	bge	a3,a0,100e <printInt+0x74>
    100a:	46a2                	lw	a3,8(sp)
    100c:	9536                	add	a0,a0,a3
    100e:	03050513          	addi	a0,a0,48
    1012:	fff70693          	addi	a3,a4,-1
    1016:	fea70fa3          	sb	a0,-1(a4)
    101a:	859a                	mv	a1,t1
    101c:	853e                	mv	a0,a5
    101e:	cc32                	sw	a2,24(sp)
    1020:	ca3a                	sw	a4,20(sp)
    1022:	c81a                	sw	t1,16(sp)
    1024:	c63e                	sw	a5,12(sp)
    1026:	c036                	sw	a3,0(sp)
    1028:	8acff0ef          	jal	ra,d4 <__udivsi3>
    102c:	47b2                	lw	a5,12(sp)
    102e:	4342                	lw	t1,16(sp)
    1030:	4752                	lw	a4,20(sp)
    1032:	4662                	lw	a2,24(sp)
    1034:	0467f963          	bgeu	a5,t1,1086 <printInt+0xec>
    1038:	cc01                	beqz	s0,1050 <printInt+0xb6>
    103a:	ca29                	beqz	a2,108c <printInt+0xf2>
    103c:	4792                	lw	a5,4(sp)
    103e:	8b89                	andi	a5,a5,2
    1040:	c7b1                	beqz	a5,108c <printInt+0xf2>
    1042:	02d00593          	li	a1,45
    1046:	8526                	mv	a0,s1
    1048:	c432                	sw	a2,8(sp)
    104a:	350d                	jal	e6c <printchar>
    104c:	4622                	lw	a2,8(sp)
    104e:	167d                	addi	a2,a2,-1
    1050:	4792                	lw	a5,4(sp)
    1052:	8b91                	andi	a5,a5,4
    1054:	c395                	beqz	a5,1078 <printInt+0xde>
    1056:	4706                	lw	a4,64(sp)
    1058:	06100793          	li	a5,97
    105c:	c432                	sw	a2,8(sp)
    105e:	03000593          	li	a1,48
    1062:	8526                	mv	a0,s1
    1064:	02f71e63          	bne	a4,a5,10a0 <printInt+0x106>
    1068:	3511                	jal	e6c <printchar>
    106a:	07800593          	li	a1,120
    106e:	8526                	mv	a0,s1
    1070:	3bf5                	jal	e6c <printchar>
    1072:	4622                	lw	a2,8(sp)
    1074:	0409                	addi	s0,s0,2
    1076:	1679                	addi	a2,a2,-2
    1078:	4716                	lw	a4,68(sp)
    107a:	4692                	lw	a3,4(sp)
    107c:	4582                	lw	a1,0(sp)
    107e:	8526                	mv	a0,s1
    1080:	3d15                	jal	eb4 <prints>
    1082:	9522                	add	a0,a0,s0
    1084:	bf15                	j	fb8 <printInt+0x1e>
    1086:	87aa                	mv	a5,a0
    1088:	4702                	lw	a4,0(sp)
    108a:	b78d                	j	fec <printInt+0x52>
    108c:	4682                	lw	a3,0(sp)
    108e:	02d00793          	li	a5,45
    1092:	4401                	li	s0,0
    1094:	fef68fa3          	sb	a5,-1(a3)
    1098:	ffe70793          	addi	a5,a4,-2
    109c:	c03e                	sw	a5,0(sp)
    109e:	bf4d                	j	1050 <printInt+0xb6>
    10a0:	33f1                	jal	e6c <printchar>
    10a2:	05800593          	li	a1,88
    10a6:	b7e1                	j	106e <printInt+0xd4>

000010a8 <printLongLongInt>:
    10a8:	4501                	li	a0,0
    10aa:	8082                	ret

000010ac <printDouble>:
    10ac:	4501                	li	a0,0
    10ae:	8082                	ret

000010b0 <print>:
    10b0:	fd810113          	addi	sp,sp,-40
    10b4:	d022                	sw	s0,32(sp)
    10b6:	ce26                	sw	s1,28(sp)
    10b8:	d206                	sw	ra,36(sp)
    10ba:	c42a                	sw	a0,8(sp)
    10bc:	82ae                	mv	t0,a1
    10be:	8432                	mv	s0,a2
    10c0:	c602                	sw	zero,12(sp)
    10c2:	4481                	li	s1,0
    10c4:	00028583          	lb	a1,0(t0)
    10c8:	ed89                	bnez	a1,10e2 <print+0x32>
    10ca:	47a2                	lw	a5,8(sp)
    10cc:	c781                	beqz	a5,10d4 <print+0x24>
    10ce:	4581                	li	a1,0
    10d0:	853e                	mv	a0,a5
    10d2:	3b69                	jal	e6c <printchar>
    10d4:	5092                	lw	ra,36(sp)
    10d6:	5402                	lw	s0,32(sp)
    10d8:	8526                	mv	a0,s1
    10da:	44f2                	lw	s1,28(sp)
    10dc:	02810113          	addi	sp,sp,40
    10e0:	8082                	ret
    10e2:	02500793          	li	a5,37
    10e6:	00f58863          	beq	a1,a5,10f6 <print+0x46>
    10ea:	4522                	lw	a0,8(sp)
    10ec:	c816                	sw	t0,16(sp)
    10ee:	0485                	addi	s1,s1,1
    10f0:	3bb5                	jal	e6c <printchar>
    10f2:	42c2                	lw	t0,16(sp)
    10f4:	a839                	j	1112 <print+0x62>
    10f6:	00128783          	lb	a5,1(t0)
    10fa:	00128713          	addi	a4,t0,1
    10fe:	00b79c63          	bne	a5,a1,1116 <print+0x66>
    1102:	4522                	lw	a0,8(sp)
    1104:	02500593          	li	a1,37
    1108:	c83a                	sw	a4,16(sp)
    110a:	338d                	jal	e6c <printchar>
    110c:	4742                	lw	a4,16(sp)
    110e:	0485                	addi	s1,s1,1
    1110:	82ba                	mv	t0,a4
    1112:	0285                	addi	t0,t0,1
    1114:	bf45                	j	10c4 <print+0x14>
    1116:	dbd5                	beqz	a5,10ca <print+0x1a>
    1118:	02b00693          	li	a3,43
    111c:	04d78963          	beq	a5,a3,116e <print+0xbe>
    1120:	00f6c863          	blt	a3,a5,1130 <print+0x80>
    1124:	02300693          	li	a3,35
    1128:	04d78663          	beq	a5,a3,1174 <print+0xc4>
    112c:	4781                	li	a5,0
    112e:	a005                	j	114e <print+0x9e>
    1130:	02d00693          	li	a3,45
    1134:	00d78a63          	beq	a5,a3,1148 <print+0x98>
    1138:	03000693          	li	a3,48
    113c:	fed798e3          	bne	a5,a3,112c <print+0x7c>
    1140:	00228713          	addi	a4,t0,2
    1144:	4789                	li	a5,2
    1146:	a021                	j	114e <print+0x9e>
    1148:	00228713          	addi	a4,t0,2
    114c:	4785                	li	a5,1
    114e:	00070683          	lb	a3,0(a4)
    1152:	02b00613          	li	a2,43
    1156:	04c68363          	beq	a3,a2,119c <print+0xec>
    115a:	02d64163          	blt	a2,a3,117c <print+0xcc>
    115e:	02300613          	li	a2,35
    1162:	02c68b63          	beq	a3,a2,1198 <print+0xe8>
    1166:	82ba                	mv	t0,a4
    1168:	4501                	li	a0,0
    116a:	46a5                	li	a3,9
    116c:	a081                	j	11ac <print+0xfc>
    116e:	00228713          	addi	a4,t0,2
    1172:	bf6d                	j	112c <print+0x7c>
    1174:	00228713          	addi	a4,t0,2
    1178:	4791                	li	a5,4
    117a:	bfd1                	j	114e <print+0x9e>
    117c:	02d00613          	li	a2,45
    1180:	00c68963          	beq	a3,a2,1192 <print+0xe2>
    1184:	03000613          	li	a2,48
    1188:	fcc69fe3          	bne	a3,a2,1166 <print+0xb6>
    118c:	0027e793          	ori	a5,a5,2
    1190:	a031                	j	119c <print+0xec>
    1192:	0705                	addi	a4,a4,1
    1194:	4785                	li	a5,1
    1196:	bfc1                	j	1166 <print+0xb6>
    1198:	0047e793          	ori	a5,a5,4
    119c:	0705                	addi	a4,a4,1
    119e:	b7e1                	j	1166 <print+0xb6>
    11a0:	00251613          	slli	a2,a0,0x2
    11a4:	9532                	add	a0,a0,a2
    11a6:	0506                	slli	a0,a0,0x1
    11a8:	953a                	add	a0,a0,a4
    11aa:	0285                	addi	t0,t0,1
    11ac:	00028603          	lb	a2,0(t0)
    11b0:	fd060713          	addi	a4,a2,-48
    11b4:	0ff77593          	andi	a1,a4,255
    11b8:	feb6f4e3          	bgeu	a3,a1,11a0 <print+0xf0>
    11bc:	02e00713          	li	a4,46
    11c0:	4699                	li	a3,6
    11c2:	00e61e63          	bne	a2,a4,11de <print+0x12e>
    11c6:	0285                	addi	t0,t0,1
    11c8:	4681                	li	a3,0
    11ca:	45a5                	li	a1,9
    11cc:	00028603          	lb	a2,0(t0)
    11d0:	fd060613          	addi	a2,a2,-48
    11d4:	0ff67713          	andi	a4,a2,255
    11d8:	02e5f563          	bgeu	a1,a4,1202 <print+0x152>
    11dc:	c636                	sw	a3,12(sp)
    11de:	00028703          	lb	a4,0(t0)
    11e2:	06a00613          	li	a2,106
    11e6:	0ac70d63          	beq	a4,a2,12a0 <print+0x1f0>
    11ea:	02e64363          	blt	a2,a4,1210 <print+0x160>
    11ee:	04c00613          	li	a2,76
    11f2:	0ac70763          	beq	a4,a2,12a0 <print+0x1f0>
    11f6:	06800613          	li	a2,104
    11fa:	08c70c63          	beq	a4,a2,1292 <print+0x1e2>
    11fe:	4581                	li	a1,0
    1200:	a82d                	j	123a <print+0x18a>
    1202:	00269713          	slli	a4,a3,0x2
    1206:	96ba                	add	a3,a3,a4
    1208:	0686                	slli	a3,a3,0x1
    120a:	96b2                	add	a3,a3,a2
    120c:	0285                	addi	t0,t0,1
    120e:	bf7d                	j	11cc <print+0x11c>
    1210:	07400613          	li	a2,116
    1214:	08c70663          	beq	a4,a2,12a0 <print+0x1f0>
    1218:	07a00613          	li	a2,122
    121c:	08c70263          	beq	a4,a2,12a0 <print+0x1f0>
    1220:	06c00613          	li	a2,108
    1224:	4581                	li	a1,0
    1226:	00c71a63          	bne	a4,a2,123a <print+0x18a>
    122a:	00128603          	lb	a2,1(t0)
    122e:	458d                	li	a1,3
    1230:	00e61463          	bne	a2,a4,1238 <print+0x188>
    1234:	0285                	addi	t0,t0,1
    1236:	4591                	li	a1,4
    1238:	0285                	addi	t0,t0,1
    123a:	00028603          	lb	a2,0(t0)
    123e:	06000393          	li	t2,96
    1242:	06100713          	li	a4,97
    1246:	00c3c463          	blt	t2,a2,124e <print+0x19e>
    124a:	04100713          	li	a4,65
    124e:	06700393          	li	t2,103
    1252:	06c3c463          	blt	t2,a2,12ba <print+0x20a>
    1256:	06500393          	li	t2,101
    125a:	18765463          	bge	a2,t2,13e2 <print+0x332>
    125e:	04700393          	li	t2,71
    1262:	04c3c163          	blt	t2,a2,12a4 <print+0x1f4>
    1266:	04500593          	li	a1,69
    126a:	16b65c63          	bge	a2,a1,13e2 <print+0x332>
    126e:	04300713          	li	a4,67
    1272:	eae610e3          	bne	a2,a4,1112 <print+0x62>
    1276:	4018                	lw	a4,0(s0)
    1278:	00440393          	addi	t2,s0,4
    127c:	ca16                	sw	t0,20(sp)
    127e:	00e10c23          	sb	a4,24(sp)
    1282:	c81e                	sw	t2,16(sp)
    1284:	00010ca3          	sb	zero,25(sp)
    1288:	4701                	li	a4,0
    128a:	86be                	mv	a3,a5
    128c:	862a                	mv	a2,a0
    128e:	082c                	addi	a1,sp,24
    1290:	a849                	j	1322 <print+0x272>
    1292:	00128603          	lb	a2,1(t0)
    1296:	4581                	li	a1,0
    1298:	fae611e3          	bne	a2,a4,123a <print+0x18a>
    129c:	0289                	addi	t0,t0,2
    129e:	bf71                	j	123a <print+0x18a>
    12a0:	0285                	addi	t0,t0,1
    12a2:	bfb1                	j	11fe <print+0x14e>
    12a4:	06300693          	li	a3,99
    12a8:	fcd607e3          	beq	a2,a3,1276 <print+0x1c6>
    12ac:	06c6cf63          	blt	a3,a2,132a <print+0x27a>
    12b0:	05800693          	li	a3,88
    12b4:	02d60363          	beq	a2,a3,12da <print+0x22a>
    12b8:	bda9                	j	1112 <print+0x62>
    12ba:	07300693          	li	a3,115
    12be:	04d60463          	beq	a2,a3,1306 <print+0x256>
    12c2:	02c6cb63          	blt	a3,a2,12f8 <print+0x248>
    12c6:	06f00693          	li	a3,111
    12ca:	0ed60363          	beq	a2,a3,13b0 <print+0x300>
    12ce:	07000693          	li	a3,112
    12d2:	0047e793          	ori	a5,a5,4
    12d6:	e2d61ee3          	bne	a2,a3,1112 <print+0x62>
    12da:	4691                	li	a3,4
    12dc:	0cd59063          	bne	a1,a3,139c <print+0x2ec>
    12e0:	00840393          	addi	t2,s0,8
    12e4:	400c                	lw	a1,0(s0)
    12e6:	4050                	lw	a2,4(s0)
    12e8:	ca16                	sw	t0,20(sp)
    12ea:	c23a                	sw	a4,4(sp)
    12ec:	c03e                	sw	a5,0(sp)
    12ee:	c81e                	sw	t2,16(sp)
    12f0:	87aa                	mv	a5,a0
    12f2:	4701                	li	a4,0
    12f4:	46c1                	li	a3,16
    12f6:	a881                	j	1346 <print+0x296>
    12f8:	07500693          	li	a3,117
    12fc:	06d60963          	beq	a2,a3,136e <print+0x2be>
    1300:	07800693          	li	a3,120
    1304:	bf45                	j	12b4 <print+0x204>
    1306:	4018                	lw	a4,0(s0)
    1308:	000016b7          	lui	a3,0x1
    130c:	00440393          	addi	t2,s0,4
    1310:	73c68593          	addi	a1,a3,1852 # 173c <PAIRING_ADDR+0x2cc>
    1314:	c311                	beqz	a4,1318 <print+0x268>
    1316:	85ba                	mv	a1,a4
    1318:	4732                	lw	a4,12(sp)
    131a:	ca16                	sw	t0,20(sp)
    131c:	c81e                	sw	t2,16(sp)
    131e:	86be                	mv	a3,a5
    1320:	862a                	mv	a2,a0
    1322:	4522                	lw	a0,8(sp)
    1324:	b91ff0ef          	jal	ra,eb4 <prints>
    1328:	a00d                	j	134a <print+0x29a>
    132a:	4691                	li	a3,4
    132c:	02d59463          	bne	a1,a3,1354 <print+0x2a4>
    1330:	00840393          	addi	t2,s0,8
    1334:	400c                	lw	a1,0(s0)
    1336:	4050                	lw	a2,4(s0)
    1338:	ca16                	sw	t0,20(sp)
    133a:	c23a                	sw	a4,4(sp)
    133c:	c03e                	sw	a5,0(sp)
    133e:	c81e                	sw	t2,16(sp)
    1340:	87aa                	mv	a5,a0
    1342:	4705                	li	a4,1
    1344:	46a9                	li	a3,10
    1346:	4522                	lw	a0,8(sp)
    1348:	3385                	jal	10a8 <printLongLongInt>
    134a:	43c2                	lw	t2,16(sp)
    134c:	94aa                	add	s1,s1,a0
    134e:	841e                	mv	s0,t2
    1350:	42d2                	lw	t0,20(sp)
    1352:	b3c1                	j	1112 <print+0x62>
    1354:	46b2                	lw	a3,12(sp)
    1356:	400c                	lw	a1,0(s0)
    1358:	c816                	sw	t0,16(sp)
    135a:	c236                	sw	a3,4(sp)
    135c:	c03a                	sw	a4,0(sp)
    135e:	0411                	addi	s0,s0,4
    1360:	872a                	mv	a4,a0
    1362:	4685                	li	a3,1
    1364:	4629                	li	a2,10
    1366:	4522                	lw	a0,8(sp)
    1368:	390d                	jal	f9a <printInt>
    136a:	94aa                	add	s1,s1,a0
    136c:	b359                	j	10f2 <print+0x42>
    136e:	4691                	li	a3,4
    1370:	00d59d63          	bne	a1,a3,138a <print+0x2da>
    1374:	00840393          	addi	t2,s0,8
    1378:	400c                	lw	a1,0(s0)
    137a:	4050                	lw	a2,4(s0)
    137c:	ca16                	sw	t0,20(sp)
    137e:	c23a                	sw	a4,4(sp)
    1380:	c03e                	sw	a5,0(sp)
    1382:	c81e                	sw	t2,16(sp)
    1384:	87aa                	mv	a5,a0
    1386:	4701                	li	a4,0
    1388:	bf75                	j	1344 <print+0x294>
    138a:	46b2                	lw	a3,12(sp)
    138c:	400c                	lw	a1,0(s0)
    138e:	c816                	sw	t0,16(sp)
    1390:	c236                	sw	a3,4(sp)
    1392:	c03a                	sw	a4,0(sp)
    1394:	0411                	addi	s0,s0,4
    1396:	872a                	mv	a4,a0
    1398:	4681                	li	a3,0
    139a:	b7e9                	j	1364 <print+0x2b4>
    139c:	46b2                	lw	a3,12(sp)
    139e:	c816                	sw	t0,16(sp)
    13a0:	400c                	lw	a1,0(s0)
    13a2:	4641                	li	a2,16
    13a4:	c236                	sw	a3,4(sp)
    13a6:	c03a                	sw	a4,0(sp)
    13a8:	0411                	addi	s0,s0,4
    13aa:	872a                	mv	a4,a0
    13ac:	4681                	li	a3,0
    13ae:	bf65                	j	1366 <print+0x2b6>
    13b0:	4691                	li	a3,4
    13b2:	00d59e63          	bne	a1,a3,13ce <print+0x31e>
    13b6:	00840393          	addi	t2,s0,8
    13ba:	400c                	lw	a1,0(s0)
    13bc:	4050                	lw	a2,4(s0)
    13be:	ca16                	sw	t0,20(sp)
    13c0:	c23a                	sw	a4,4(sp)
    13c2:	c03e                	sw	a5,0(sp)
    13c4:	c81e                	sw	t2,16(sp)
    13c6:	87aa                	mv	a5,a0
    13c8:	4701                	li	a4,0
    13ca:	46a1                	li	a3,8
    13cc:	bfad                	j	1346 <print+0x296>
    13ce:	46b2                	lw	a3,12(sp)
    13d0:	400c                	lw	a1,0(s0)
    13d2:	c816                	sw	t0,16(sp)
    13d4:	c236                	sw	a3,4(sp)
    13d6:	c03a                	sw	a4,0(sp)
    13d8:	0411                	addi	s0,s0,4
    13da:	872a                	mv	a4,a0
    13dc:	4681                	li	a3,0
    13de:	4621                	li	a2,8
    13e0:	b759                	j	1366 <print+0x2b6>
    13e2:	400c                	lw	a1,0(s0)
    13e4:	00840613          	addi	a2,s0,8
    13e8:	4040                	lw	s0,4(s0)
    13ea:	c23a                	sw	a4,4(sp)
    13ec:	872a                	mv	a4,a0
    13ee:	4522                	lw	a0,8(sp)
    13f0:	c832                	sw	a2,16(sp)
    13f2:	c03e                	sw	a5,0(sp)
    13f4:	8622                	mv	a2,s0
    13f6:	87b6                	mv	a5,a3
    13f8:	46a9                	li	a3,10
    13fa:	ca16                	sw	t0,20(sp)
    13fc:	3945                	jal	10ac <printDouble>
    13fe:	94aa                	add	s1,s1,a0
    1400:	4442                	lw	s0,16(sp)
    1402:	b7b9                	j	1350 <print+0x2a0>

00001404 <printf>:
    1404:	fdc10113          	addi	sp,sp,-36
    1408:	c82e                	sw	a1,16(sp)
    140a:	ca32                	sw	a2,20(sp)
    140c:	85aa                	mv	a1,a0
    140e:	0810                	addi	a2,sp,16
    1410:	4501                	li	a0,0
    1412:	c606                	sw	ra,12(sp)
    1414:	cc36                	sw	a3,24(sp)
    1416:	ce3a                	sw	a4,28(sp)
    1418:	d03e                	sw	a5,32(sp)
    141a:	c032                	sw	a2,0(sp)
    141c:	3951                	jal	10b0 <print>
    141e:	40b2                	lw	ra,12(sp)
    1420:	02410113          	addi	sp,sp,36
    1424:	8082                	ret

00001426 <puts>:
    1426:	1141                	addi	sp,sp,-16
    1428:	c422                	sw	s0,8(sp)
    142a:	c226                	sw	s1,4(sp)
    142c:	c606                	sw	ra,12(sp)
    142e:	211c                	lbu	a5,0(a0)
    1430:	84aa                	mv	s1,a0
    1432:	4401                	li	s0,0
    1434:	81dc                	sb	a5,3(sp)
    1436:	00310783          	lb	a5,3(sp)
    143a:	0405                	addi	s0,s0,1
    143c:	ef99                	bnez	a5,145a <puts+0x34>
    143e:	47a9                	li	a5,10
    1440:	00310593          	addi	a1,sp,3
    1444:	4605                	li	a2,1
    1446:	4501                	li	a0,0
    1448:	81dc                	sb	a5,3(sp)
    144a:	9d7ff0ef          	jal	ra,e20 <_write>
    144e:	8522                	mv	a0,s0
    1450:	40b2                	lw	ra,12(sp)
    1452:	4422                	lw	s0,8(sp)
    1454:	4492                	lw	s1,4(sp)
    1456:	0141                	addi	sp,sp,16
    1458:	8082                	ret
    145a:	4605                	li	a2,1
    145c:	00310593          	addi	a1,sp,3
    1460:	4501                	li	a0,0
    1462:	9bfff0ef          	jal	ra,e20 <_write>
    1466:	008487b3          	add	a5,s1,s0
    146a:	239c                	lbu	a5,0(a5)
    146c:	81dc                	sb	a5,3(sp)
    146e:	b7e1                	j	1436 <puts+0x10>

00001470 <PAIRING_ADDR>:
    1470:	e7e7 00e7 0a0d 0a0d 3d3d 203d 4154 4b4e     ........=== TANK
    1480:	5320 4e45 4f53 2052 4f42 544f 3d20 3d3d      SENSOR BOOT ===
    1490:	000d 0000 6c50 7461 6f66 6d72 203a 4843     ....Platform: CH
    14a0:	3233 3056 3330 4020 2520 756c 4820 0d7a     32V003 @ %lu Hz.
    14b0:	000a 0000 6e49 7469 6169 696c 697a 676e     ....Initializing
    14c0:	5220 6461 6f69 4820 7261 7764 7261 2e65      Radio Hardware.
    14d0:	2e2e 000d 535b 5359 4554 5d4d 4320 6f6c     ....[SYSTEM] Clo
    14e0:	6b63 5620 6c61 6469 7461 6f69 3a6e 3120     ck Validation: 1
    14f0:	3030 6d30 2073 6564 616c 2e79 2e2e 0000     000ms delay.....
    1500:	4420 4e4f 2e45 4d20 6c69 696c 2073 6944      DONE. Millis Di
    1510:	6666 203a 6c25 2075 736d 0a0d 0000 0000     ff: %lu ms......
    1520:	535b 5359 4554 5d4d 4520 746e 7265 6e69     [SYSTEM] Enterin
    1530:	2067 6449 656c 4d20 646f 2e65 2820 6f48     g Idle Mode. (Ho
    1540:	646c 6220 7475 6f74 206e 6f66 2072 6170     ld button for pa
    1550:	7269 6e69 2967 000d 535b 5359 4554 5d4d     iring)..[SYSTEM]
    1560:	5520 6573 2072 7274 6769 6567 3a72 5020      User trigger: P
    1570:	4941 4952 474e 4d20 444f 0d45 0000 0000     AIRING MODE.....
    1580:	445b 5441 5d41 5320 7165 253a 756c 7c20     [DATA] Seq:%lu |
    1590:	4c20 7665 6c65 253a 2564 2025 207c 5243      Level:%d%% | CR
    15a0:	3a43 7830 3025 5832 2d20 203e 6944 7073     C:0x%02X -> Disp
    15b0:	7461 6863 6e69 2067 5542 5352 2054 3328     atching BURST (3
    15c0:	2978 2e2e 0d2e 000a 0a0d 505b 4941 5d52     x)........[PAIR]
    15d0:	5420 6e61 206b 4449 6320 6168 676e 6465      Tank ID changed
    15e0:	203a 7830 3025 5834 0a0d 0000 0a0d 505b     : 0x%04X......[P
    15f0:	4941 5d52 5320 6174 7472 6e69 2067 4944     AIR] Starting DI
    1600:	4353 564f 5245 2059 5242 414f 4344 5341     SCOVERY BROADCAS
    1610:	2054 6f66 2072 6425 6d20 6e69 2820 6843     T for %d min (Ch
    1620:	393a 2939 2e2e 0d2e 000a 0000 505b 4941     :99)........[PAI
    1630:	5d52 4320 6568 6b63 7573 3a6d 3020 2578     R] Checksum: 0x%
    1640:	3230 0d58 000a 0000 505b 4941 5d52 5320     02X.....[PAIR] S
    1650:	6e65 6964 676e 5220 7165 6220 7275 7473     ending Req burst
    1660:	2520 2f64 6425 2e2e 0d2e 000a 505b 4941      %d/%d......[PAI
    1670:	5d52 4220 6f72 6461 6163 7473 6320 6d6f     R] Broadcast com
    1680:	6c70 7465 2e65 5220 7465 7275 696e 676e     plete. Returning
    1690:	7420 206f 6f6e 6d72 6c61 6d20 646f 2e65      to normal mode.
    16a0:	000d 0000 525b 4441 4f49 205d 6f43 666e     ....[RADIO] Conf
    16b0:	6769 7275 6e69 2067 6148 6472 6177 6572     iguring Hardware
    16c0:	2820 3532 6b30 7062 2c73 2d20 3231 4264      (250kbps, -12dB
    16d0:	2c6d 4e20 2d4f 4341 294b 2e2e 0d2e 0000     m, NO-ACK)......
    16e0:	525b 4441 4f49 205d 6148 6472 6177 6572     [RADIO] Hardware
    16f0:	5220 6165 7964 2820 4153 4546 522d 5741      Ready (SAFE-RAW
    1700:	2e29 000d 525b 4441 4f49 205d 6154 6772     )...[RADIO] Targ
    1710:	7465 6e69 2067 6441 7264 7365 2073 3328     eting Address (3
    1720:	422d 7479 2965 203a 3025 5832 2520 3230     -Byte): %02X %02
    1730:	2058 3025 5832 0a0d 0000 0000 6e28 6c75     X %02X......(nul
    1740:	296c 0000                                   l)..
